 binding

 Timestamp is 561a0961 (Sun Oct 11 15:01:53 2015)

 Preferred load address is 10000000

 Start         Length     Name                   Class
 0001:00000000 0000025fH .text                   CODE
 0001:00000260 00015dcdH .text$mn                CODE
 0002:00000000 00000120H .idata$5                DATA
 0002:00000120 00000004H .00cfg                  DATA
 0002:00000124 00000004H .CRT$XCA                DATA
 0002:00000128 00000004H .CRT$XCU                DATA
 0002:0000012c 00000004H .CRT$XCZ                DATA
 0002:00000130 00000004H .CRT$XIA                DATA
 0002:00000134 0000000cH .CRT$XIC                DATA
 0002:00000140 00000004H .CRT$XIZ                DATA
 0002:00000144 00000004H .CRT$XPA                DATA
 0002:00000148 00000008H .CRT$XPX                DATA
 0002:00000150 00000004H .CRT$XPXA               DATA
 0002:00000154 00000004H .CRT$XPZ                DATA
 0002:00000158 00000004H .CRT$XTA                DATA
 0002:0000015c 00000004H .CRT$XTZ                DATA
 0002:00000160 00000000H .gfids$x                DATA
 0002:00000160 00005e38H .rdata                  DATA
 0002:00005f98 00000084H .rdata$debug            DATA
 0002:0000601c 0000012cH .rdata$r                DATA
 0002:00006150 0000000cH .rdata$sxdata           DATA
 0002:00006160 00000010H .rdata$zETW0            DATA
 0002:00006170 00000077H .rdata$zETW1            DATA
 0002:000061e7 0000002cH .rdata$zETW2            DATA
 0002:00006213 00000001H .rdata$zETW9            DATA
 0002:00006214 00000004H .rtc$IAA                DATA
 0002:00006218 00000004H .rtc$IZZ                DATA
 0002:0000621c 00000004H .rtc$TAA                DATA
 0002:00006220 00000004H .rtc$TZZ                DATA
 0002:00006228 0000047cH .xdata$x                DATA
 0002:000066a4 00000020H .didat$2                DATA
 0002:000066c4 00000020H .didat$3                DATA
 0002:000066e4 000000b0H .didat$4                DATA
 0002:00006794 00000b04H .didat$6                DATA
 0002:00007298 000000b0H .didat$7                DATA
 0002:00007350 00000052H .edata                  DATA
 0002:000073a4 00000028H .idata$2                DATA
 0002:000073cc 00000014H .idata$3                DATA
 0002:000073e0 00000120H .idata$4                DATA
 0002:00007500 00000536H .idata$6                DATA
 0003:00000000 00000c10H .data                   DATA
 0003:00000c10 00000078H .data$r                 DATA
 0003:00000c88 000000b0H .didat$5                DATA
 0003:00000d38 00001b0cH .bss                    DATA
 0004:00000000 00000058H .rsrc$01                DATA
 0004:00000060 00000180H .rsrc$02                DATA

  Address         Publics by Value              Rva+Base       Lib:Object

 0000:00000000       __except_list              00000000     <absolute>
 0000:00000000       ___guard_fids_count        00000000     <absolute>
 0000:00000000       ___guard_fids_table        00000000     <absolute>
 0000:00000003       ___safe_se_handler_count   00000003     <absolute>
 0000:00000100       ___guard_flags             00000100     <absolute>
 0000:00000000       ___ImageBase               10000000     <linker-defined>
 0001:00000000       _TraceLoggingRegister      10001000 f i libvcruntime:telemetry.obj
 0001:0000005d       _TraceLoggingSetInformation 1000105d f i libvcruntime:telemetry.obj
 0001:00000088       _TraceLoggingUnregister    10001088 f i libvcruntime:telemetry.obj
 0001:000000a7       __TlgCreateSz              100010a7 f i libvcruntime:telemetry.obj
 0001:000000df       __TlgCreateWsz             100010df f i libvcruntime:telemetry.obj
 0001:00000123       __TlgEnableCallback@36     10001123 f i libvcruntime:telemetry.obj
 0001:0000019b       __TlgKeywordOn             1000119b f i libvcruntime:telemetry.obj
 0001:000001d7       __TlgWrite                 100011d7 f i libvcruntime:telemetry.obj
 0001:00000260       ___local_stdio_printf_options 10001260 f i binding.obj
 0001:00000270       __snprintf_s               10001270 f i binding.obj
 0001:00000350       ?New@?$Factory@VFunctionTemplate@v8@@@imp@Nan@@SA?AV?$Local@VFunctionTemplate@v8@@@v8@@P6AXABV?$FunctionCallbackInfo@VValue@v8@@@3@@ZV?$Local@VValue@v8@@@5@V?$Local@VSignature@v8@@@5@@Z 10001350 f i binding.obj
 0001:00000890       ___except_validate_jump_buffer 10001890 f   libvcruntime:jbcxrval.obj
 0001:00000890       @_guard_check_icall_nop@4  10001890 f   LIBCMT:guard_support.obj
 0001:00000890       ___except_validate_context_record 10001890 f   libvcruntime:jbcxrval.obj
 0001:00001db0       ?init@@YAXV?$Local@VObject@v8@@@v8@@@Z 10002db0 f   binding.obj
 0001:00003bc0       ??$New@VUint32@v8@@I@Nan@@YA?AV?$Local@VUint32@v8@@@v8@@I@Z 10004bc0 f i binding.obj
 0001:00003c20       ?invokeparameter@?$WeakCallbackInfo@X@Nan@@CAXABV?$WeakCallbackInfo@V?$WeakCallbackInfo@X@Nan@@@v8@@@Z 10004c20 f i binding.obj
 0001:00003cbb       __imp_load_?Uint32Value@Value@v8@@QBEIXZ 10004cbb f   node:node.exe
 0001:00003cc5       __tailMerge_node_exe       10004cc5 f i node:node.exe
 0001:00003cd6       __imp_load_?IntegerValue@Value@v8@@QBE?AV?$Maybe@_J@2@V?$Local@VContext@v8@@@2@@Z 10004cd6 f   node:node.exe
 0001:00003ce0       __imp_load_?BooleanValue@Value@v8@@QBE_NXZ 10004ce0 f   node:node.exe
 0001:00003cea       __imp_load_?ToUint32@Value@v8@@QBE?AV?$MaybeLocal@VUint32@v8@@@2@V?$Local@VContext@v8@@@2@@Z 10004cea f   node:node.exe
 0001:00003cf4       __imp_load_?IsNumber@Value@v8@@QBE_NXZ 10004cf4 f   node:node.exe
 0001:00003cfe       __imp_load_?ToLocalEmpty@V8@v8@@CAXXZ 10004cfe f   node:node.exe
 0001:00003d08       __imp_load_?FromJustIsNothing@V8@v8@@CAXXZ 10004d08 f   node:node.exe
 0001:00003d12       __imp_load_?MakeWeak@V8@v8@@CAXPAPAVObject@internal@2@PAXP6AXABV?$WeakCallbackInfo@X@2@@ZW4WeakCallbackType@2@@Z 10004d12 f   node:node.exe
 0001:00003d1c       __imp_load_?DisposeGlobal@V8@v8@@CAXPAPAVObject@internal@2@@Z 10004d1c f   node:node.exe
 0001:00003d26       __imp_load_?GlobalizeReference@V8@v8@@CAPAPAVObject@internal@2@PAVIsolate@42@PAPAV342@@Z 10004d26 f   node:node.exe
 0001:00003d30       __imp_load_?Escape@EscapableHandleScope@v8@@AAEPAPAVObject@internal@2@PAPAV342@@Z 10004d30 f   node:node.exe
 0001:00003d3a       __imp_load_??0EscapableHandleScope@v8@@QAE@PAVIsolate@1@@Z 10004d3a f   node:node.exe
 0001:00003d44       __imp_load_?CreateHandle@HandleScope@v8@@KAPAPAVObject@internal@2@PAVIsolate@42@PAV342@@Z 10004d44 f   node:node.exe
 0001:00003d4e       __imp_load_?CreateHandle@HandleScope@v8@@CAPAPAVObject@internal@2@PAVHeapObject@42@PAV342@@Z 10004d4e f   node:node.exe
 0001:00003d58       __imp_load_??1HandleScope@v8@@QAE@XZ 10004d58 f   node:node.exe
 0001:00003d62       __imp_load_??0HandleScope@v8@@QAE@PAVIsolate@1@@Z 10004d62 f   node:node.exe
 0001:00003d6c       __imp_load_?NewFromUnsigned@Integer@v8@@SA?AV?$Local@VInteger@v8@@@2@PAVIsolate@2@I@Z 10004d6c f   node:node.exe
 0001:00003d76       __imp_load_?ThrowException@Isolate@v8@@QAE?AV?$Local@VValue@v8@@@2@V32@@Z 10004d76 f   node:node.exe
 0001:00003d80       __imp_load_?GetCurrentContext@Isolate@v8@@QAE?AV?$Local@VContext@v8@@@2@XZ 10004d80 f   node:node.exe
 0001:00003d8a       __imp_load_?GetCurrent@Isolate@v8@@SAPAV12@XZ 10004d8a f   node:node.exe
 0001:00003d94       __imp_load_?Value@External@v8@@QBEPAXXZ 10004d94 f   node:node.exe
 0001:00003d9e       __imp_load_?New@External@v8@@SA?AV?$Local@VExternal@v8@@@2@PAVIsolate@2@PAX@Z 10004d9e f   node:node.exe
 0001:00003da8       __imp_load_?New@Number@v8@@SA?AV?$Local@VNumber@v8@@@2@PAVIsolate@2@N@Z 10004da8 f   node:node.exe
 0001:00003db2       __imp_load_?GetFunction@FunctionTemplate@v8@@QAE?AV?$MaybeLocal@VFunction@v8@@@2@V?$Local@VContext@v8@@@2@@Z 10004db2 f   node:node.exe
 0001:00003dbc       __imp_load_?New@FunctionTemplate@v8@@SA?AV?$Local@VFunctionTemplate@v8@@@2@PAVIsolate@2@P6AXABV?$FunctionCallbackInfo@VValue@v8@@@2@@ZV?$Local@VValue@v8@@@2@V?$Local@VSignature@v8@@@2@H@Z 10004dbc f   node:node.exe
 0001:00003dc6       __imp_load_??1Utf8Value@String@v8@@QAE@XZ 10004dc6 f   node:node.exe
 0001:00003dd0       __imp_load_??0Utf8Value@String@v8@@QAE@V?$Local@VValue@v8@@@2@@Z 10004dd0 f   node:node.exe
 0001:00003dda       __imp_load_?NewFromUtf8@String@v8@@SA?AV?$MaybeLocal@VString@v8@@@2@PAVIsolate@2@PBDW4NewStringType@2@H@Z 10004dda f   node:node.exe
 0001:00003de4       __imp_load_?SlowGetInternalField@Object@v8@@AAE?AV?$Local@VValue@v8@@@2@H@Z 10004de4 f   node:node.exe
 0001:00003dee       __imp_load_?New@Object@v8@@SA?AV?$Local@VObject@v8@@@2@PAVIsolate@2@@Z 10004dee f   node:node.exe
 0001:00003df8       __imp_load_?SetInternalField@Object@v8@@QAEXHV?$Local@VValue@v8@@@2@@Z 10004df8 f   node:node.exe
 0001:00003e02       __imp_load_?ForceSet@Object@v8@@QAE_NV?$Local@VValue@v8@@@2@0W4PropertyAttribute@2@@Z 10004e02 f   node:node.exe
 0001:00003e0c       __imp_load_?Set@Object@v8@@QAE_NV?$Local@VValue@v8@@@2@0@Z 10004e0c f   node:node.exe
 0001:00003e16       __imp_load_?SetName@Function@v8@@QAEXV?$Local@VString@v8@@@2@@Z 10004e16 f   node:node.exe
 0001:00003e20       __imp_load_?Error@Exception@v8@@SA?AV?$Local@VValue@v8@@@2@V?$Local@VString@v8@@@2@@Z 10004e20 f   node:node.exe
 0001:00003e2a       __imp_load_?TypeError@Exception@v8@@SA?AV?$Local@VValue@v8@@@2@V?$Local@VString@v8@@@2@@Z 10004e2a f   node:node.exe
 0001:00003e34       __imp_load_?SetInternalFieldCount@ObjectTemplate@v8@@QAEXH@Z 10004e34 f   node:node.exe
 0001:00003e3e       __imp_load_?NewInstance@ObjectTemplate@v8@@QAE?AV?$MaybeLocal@VObject@v8@@@2@V?$Local@VContext@v8@@@2@@Z 10004e3e f   node:node.exe
 0001:00003e48       __imp_load_?New@ObjectTemplate@v8@@SA?AV?$Local@VObjectTemplate@v8@@@2@PAVIsolate@2@V?$Local@VFunctionTemplate@v8@@@2@@Z 10004e48 f   node:node.exe
 0001:00003e52       __imp_load_?HasInstance@Buffer@node@@YA_NV?$Local@VValue@v8@@@v8@@@Z 10004e52 f   node:node.exe
 0001:00003e5c       __imp_load_?New@Buffer@node@@YA?AV?$MaybeLocal@VObject@v8@@@v8@@PAVIsolate@4@PADIP6AX1PAX@Z2@Z 10004e5c f   node:node.exe
 0001:00003e66       __imp_load_?Data@Buffer@node@@YAPADV?$Local@VObject@v8@@@v8@@@Z 10004e66 f   node:node.exe
 0001:00003e70       __imp_load__node_module_register 10004e70 f   node:node.exe
 0001:00003e7a       @__security_check_cookie@4 10004e7a f   LIBCMT:_secchk_.obj
 0001:00003e8b       ??3@YAXPAXI@Z              10004e8b f   LIBCMT:delete_scalar_size.obj
 0001:00003e99       ??2@YAPAXI@Z               10004e99 f   LIBCMT:new_scalar.obj
 0001:000041e1       __DllMainCRTStartup@12     100051e1 f   LIBCMT:dll_dllmain.obj
 0001:00004204       ___raise_securityfailure   10005204 f   LIBCMT:gs_report.obj
 0001:0000422c       ___report_gsfailure        1000522c f   LIBCMT:gs_report.obj
 0001:00004327       ??3@YAXPAX@Z               10005327 f   LIBCMT:delete_scalar.obj
 0001:0000432c       ??0bad_alloc@std@@QAE@ABV01@@Z 1000532c f i LIBCMT:throw_bad_alloc.obj
 0001:00004347       ??0bad_alloc@std@@QAE@XZ   10005347 f i LIBCMT:throw_bad_alloc.obj
 0001:0000435f       ??0bad_array_new_length@std@@QAE@ABV01@@Z 1000535f f i LIBCMT:throw_bad_alloc.obj
 0001:0000437a       ??0bad_array_new_length@std@@QAE@XZ 1000537a f i LIBCMT:throw_bad_alloc.obj
 0001:00004392       ??0exception@std@@QAE@ABV01@@Z 10005392 f i LIBCMT:throw_bad_alloc.obj
 0001:000043be       ??1bad_array_new_length@std@@UAE@XZ 100053be f i LIBCMT:throw_bad_alloc.obj
 0001:000043be       ??1bad_alloc@std@@UAE@XZ   100053be f i LIBCMT:throw_bad_alloc.obj
 0001:000043cf       ??_Ebad_array_new_length@std@@UAEPAXI@Z 100053cf f i LIBCMT:throw_bad_alloc.obj
 0001:000043cf       ??_Gbad_alloc@std@@UAEPAXI@Z 100053cf f i LIBCMT:throw_bad_alloc.obj
 0001:000043cf       ??_Eexception@std@@UAEPAXI@Z 100053cf f i LIBCMT:throw_bad_alloc.obj
 0001:000043cf       ??_Ebad_alloc@std@@UAEPAXI@Z 100053cf f i LIBCMT:throw_bad_alloc.obj
 0001:000043cf       ??_Gexception@std@@UAEPAXI@Z 100053cf f i LIBCMT:throw_bad_alloc.obj
 0001:000043cf       ??_Gbad_array_new_length@std@@UAEPAXI@Z 100053cf f i LIBCMT:throw_bad_alloc.obj
 0001:000043f9       ?__scrt_throw_std_bad_alloc@@YAXXZ 100053f9 f   LIBCMT:throw_bad_alloc.obj
 0001:00004416       ?__scrt_throw_std_bad_array_new_length@@YAXXZ 10005416 f   LIBCMT:throw_bad_alloc.obj
 0001:00004433       ?what@exception@std@@UBEPBDXZ 10005433 f i LIBCMT:throw_bad_alloc.obj
 0001:00004484       ___scrt_acquire_startup_lock 10005484 f   LIBCMT:utility.obj
 0001:000044ad       ___scrt_dllmain_after_initialize_c 100054ad f   LIBCMT:utility.obj
 0001:000044c5       ___scrt_dllmain_before_initialize_c 100054c5 f   LIBCMT:utility.obj
 0001:000044d3       ___scrt_dllmain_crt_thread_attach 100054d3 f   LIBCMT:utility.obj
 0001:000044f2       ___scrt_dllmain_crt_thread_detach 100054f2 f   LIBCMT:utility.obj
 0001:000044ff       ___scrt_dllmain_exception_filter 100054ff f   LIBCMT:utility.obj
 0001:00004532       ___scrt_dllmain_uninitialize_c 10005532 f   LIBCMT:utility.obj
 0001:00004555       ___scrt_dllmain_uninitialize_critical 10005555 f   LIBCMT:utility.obj
 0001:00004562       ___scrt_initialize_crt     10005562 f   LIBCMT:utility.obj
 0001:0000459b       ___scrt_initialize_onexit_tables 1000559b f   LIBCMT:utility.obj
 0001:00004632       ___scrt_is_nonwritable_in_current_image 10005632 f   LIBCMT:utility.obj
 0001:000046bf       ___scrt_release_startup_lock 100056bf f   LIBCMT:utility.obj
 0001:000046d3       ___scrt_uninitialize_crt   100056d3 f   LIBCMT:utility.obj
 0001:000046fb       __onexit                   100056fb f   LIBCMT:utility.obj
 0001:00004736       _atexit                    10005736 f   LIBCMT:utility.obj
 0001:0000474b       ___security_init_cookie    1000574b f   LIBCMT:gs_support.obj
 0001:000047e7       _DllMain@12                100057e7 f   LIBCMT:dll_dllmain_stub.obj
 0001:000047ed       ?__scrt_initialize_type_info@@YAXXZ 100057ed f   LIBCMT:tncleanup.obj
 0001:000047f9       ?__scrt_uninitialize_type_info@@YAXXZ 100057f9 f   LIBCMT:tncleanup.obj
 0001:00004805       ___local_stdio_scanf_options 10005805 f i LIBCMT:default_local_stdio_options.obj
 0001:0000480b       ___scrt_initialize_default_local_stdio_options 1000580b f   LIBCMT:default_local_stdio_options.obj
 0001:00004828       ___scrt_get_dyn_tls_init_callback 10005828 f   LIBCMT:dyn_tls_init.obj
 0001:0000482e       ___scrt_fastfail           1000582e f   LIBCMT:utility_desktop.obj
 0001:00004949       __crt_debugger_hook        10005949 f   LIBCMT:utility_desktop.obj
 0001:00004951       __RTC_Initialize           10005951 f   LIBCMT:_initsect_.obj
 0001:0000497c       __RTC_Terminate            1000597c f   LIBCMT:_initsect_.obj
 0001:000049a7       @_guard_check_icall@4      100059a7 f i LIBCMT:checkcfg.obj
 0001:000049b0       __SEH_prolog4              100059b0 f   LIBCMT:_sehprolg4_.obj
 0001:000049f6       __SEH_epilog4              100059f6 f   LIBCMT:_sehprolg4_.obj
 0001:00004a0b       ??_Etype_info@@UAEPAXI@Z   10005a0b f i LIBCMT:std_type_info_static.obj
 0001:00004a0b       ??_Gtype_info@@UAEPAXI@Z   10005a0b f i LIBCMT:std_type_info_static.obj
 0001:00004a2b       ___isa_available_init      10005a2b f   LIBCMT:_cpu_disp_.obj
 0001:00004ba5       ___scrt_is_ucrt_dll_in_use 10005ba5 f   LIBCMT:ucrt_detection.obj
 0001:00004beb       ___telemetry_main_invoke_trigger 10005beb f   libvcruntime:telemetry.obj
 0001:00004c87       ___telemetry_main_return_trigger 10005c87 f   libvcruntime:telemetry.obj
 0001:00004d23       ___vcrt_initialize_telemetry_provider 10005d23 f   libvcruntime:telemetry.obj
 0001:00004d36       ___vcrt_uninitialize_telemetry_provider 10005d36 f   libvcruntime:telemetry.obj
 0001:00004d90       __except_handler4          10005d90 f   libvcruntime:_chandler4_.obj
 0001:00004eea       ___std_exception_copy      10005eea f   libvcruntime:std_exception.obj
 0001:00004f4d       ___std_exception_destroy   10005f4d f   libvcruntime:std_exception.obj
 0001:00004f6c       __CxxThrowException@8      10005f6c f   libvcruntime:throw.obj
 0001:00004fda       ___vcrt_initialize         10005fda f   libvcruntime:initialization.obj
 0001:00005008       ___vcrt_thread_attach      10006008 f   libvcruntime:initialization.obj
 0001:00005013       ___vcrt_thread_detach      10006013 f   libvcruntime:initialization.obj
 0001:0000501e       ___vcrt_uninitialize       1000601e f   libvcruntime:initialization.obj
 0001:00005042       ___vcrt_uninitialize_critical 10006042 f   libvcruntime:initialization.obj
 0001:0000504a       ___std_type_info_destroy_list 1000604a f   libvcruntime:std_type_info.obj
 0001:00005070       _memset                    10006070 f   libvcruntime:memset.obj
 0001:000051ca       ??$__crt_fast_encode_pointer@PAX@@YAPAXQAX@Z 100061ca f i libvcruntime:winapi_downlevel.obj
 0001:000051ca       ??$__crt_fast_encode_pointer@PAP6AXXZ@@YAPAP6AXXZQAP6AXXZ@Z 100061ca f i LIBCMT:utility.obj
 0001:00005308       ___vcrt_EventRegister      10006308 f   libvcruntime:winapi_downlevel.obj
 0001:00005348       ___vcrt_EventSetInformation 10006348 f   libvcruntime:winapi_downlevel.obj
 0001:0000538b       ___vcrt_EventUnregister    1000638b f   libvcruntime:winapi_downlevel.obj
 0001:000053c5       ___vcrt_EventWriteTransfer 100063c5 f   libvcruntime:winapi_downlevel.obj
 0001:0000540e       ___vcrt_FlsAlloc           1000640e f   libvcruntime:winapi_downlevel.obj
 0001:00005448       ___vcrt_FlsFree            10006448 f   libvcruntime:winapi_downlevel.obj
 0001:00005482       ___vcrt_FlsGetValue        10006482 f   libvcruntime:winapi_downlevel.obj
 0001:000054bc       ___vcrt_FlsSetValue        100064bc f   libvcruntime:winapi_downlevel.obj
 0001:000054f9       ___vcrt_InitializeCriticalSectionEx 100064f9 f   libvcruntime:winapi_downlevel.obj
 0001:0000553f       ___vcrt_initialize_winapi_thunks 1000653f f   libvcruntime:winapi_downlevel.obj
 0001:00005563       ___vcrt_uninitialize_winapi_thunks 10006563 f   libvcruntime:winapi_downlevel.obj
 0001:000055a0       __local_unwind4            100065a0 f   libvcruntime:_exsup4_.obj
 0001:00005676       __seh_longjmp_unwind4@4    10006676 f   libvcruntime:_exsup4_.obj
 0001:0000569e       @_EH4_CallFilterFunc@8     1000669e f   libvcruntime:_exsup4_.obj
 0001:000056b5       @_EH4_TransferToHandler@8  100066b5 f   libvcruntime:_exsup4_.obj
 0001:000056ce       @_EH4_GlobalUnwind2@8      100066ce f   libvcruntime:_exsup4_.obj
 0001:000056e7       @_EH4_LocalUnwind@16       100066e7 f   libvcruntime:_exsup4_.obj
 0001:000056fe       ___vcrt_freefls@4          100066fe f   libvcruntime:per_thread_data.obj
 0001:0000571a       ___vcrt_freeptd            1000671a f   libvcruntime:per_thread_data.obj
 0001:00005750       ___vcrt_getptd_noexit      10006750 f   libvcruntime:per_thread_data.obj
 0001:000057c8       ___vcrt_initialize_ptd     100067c8 f   libvcruntime:per_thread_data.obj
 0001:000057fb       ___vcrt_uninitialize_ptd   100067fb f   libvcruntime:per_thread_data.obj
 0001:00005816       ___vcrt_initialize_locks   10006816 f   libvcruntime:locks.obj
 0001:00005852       ___vcrt_uninitialize_locks 10006852 f   libvcruntime:locks.obj
 0001:00005881       ___vcrt_initialize_pure_virtual_call_handler 10006881 f   libvcruntime:purevirt_data.obj
 0001:000058a0       __global_unwind2           100068a0 f   libvcruntime:_exsup_.obj
 0001:00005905       __local_unwind2            10006905 f   libvcruntime:_exsup_.obj
 0001:00005989       __abnormal_termination     10006989 f   libvcruntime:_exsup_.obj
 0001:000059ac       __NLG_Notify1              100069ac f   libvcruntime:_exsup_.obj
 0001:000059b5       __NLG_Notify               100069b5 f   libvcruntime:_exsup_.obj
 0001:000059cc       __NLG_Dispatch2            100069cc     libvcruntime:_exsup_.obj
 0001:000059cc       __NLG_Dispatch             100069cc     libvcruntime:_exsup_.obj
 0001:000059d4       __NLG_Call                 100069d4 f   libvcruntime:_exsup_.obj
 0001:000059d6       __NLG_Return2              100069d6     libvcruntime:_exsup_.obj
 0001:000059d7       ??$?RV<lambda_ab9923ffb5d694ec0d78876dd103e44f>@@AAV<lambda_481dd5778c961fbcd3b60b650e9b9dc4>@@V<lambda_7923d86c9e3f319b415918ec4b39749c>@@@?$__crt_seh_guarded_call@H@@QAEH$$QAV<lambda_ab9923ffb5d694ec0d78876dd103e44f>@@AAV<lambda_481dd5778c961fbcd3b60b650e9b9dc4>@@$$QAV<lambda_7923d86c9e3f319b415918ec4b39749c>@@@Z 100069d7 f i libucrt:output.obj
 0001:00005a28       ??$__acrt_lock_stream_and_call@V<lambda_481dd5778c961fbcd3b60b650e9b9dc4>@@@@YAHQAU_iobuf@@$$QAV<lambda_481dd5778c961fbcd3b60b650e9b9dc4>@@@Z 10006a28 f i libucrt:output.obj
 0001:00005e55       ??$count@D@formatting_buffer@__crt_stdio_output@@QBEIXZ 10006e55 f i libucrt:output.obj
 0001:00005e6d       ??$ensure_buffer_is_big_enough@D@formatting_buffer@__crt_stdio_output@@QAE_NI@Z 10006e6d f i libucrt:output.obj
 0001:00005ef3       ??$is_wide_character_specifier@D@__crt_stdio_output@@YA_N_KDW4length_modifier@0@@Z 10006ef3 f i libucrt:output.obj
 0001:00005f33       ??$is_wide_character_specifier@_W@__crt_stdio_output@@YA_N_K_WW4length_modifier@0@@Z 10006f33 f i libucrt:output.obj
 0001:00005f82       ??$scratch_data@D@formatting_buffer@__crt_stdio_output@@QAEPADXZ 10006f82 f i libucrt:output.obj
 0001:00005fa0       ??$type_case_integer_parse_into_buffer@I@?$output_processor@_WV?$stream_output_adapter@_W@__crt_stdio_output@@V?$standard_base@_WV?$stream_output_adapter@_W@__crt_stdio_output@@@2@@__crt_stdio_output@@AAEXII_N@Z 10006fa0 f i libucrt:output.obj
 0001:00005fa0       ??$type_case_integer_parse_into_buffer@I@?$output_processor@DV?$string_output_adapter@D@__crt_stdio_output@@V?$format_validation_base@DV?$string_output_adapter@D@__crt_stdio_output@@@2@@__crt_stdio_output@@AAEXII_N@Z 10006fa0 f i libucrt:output.obj
 0001:00005fa0       ??$type_case_integer_parse_into_buffer@I@?$output_processor@_WV?$string_output_adapter@_W@__crt_stdio_output@@V?$standard_base@_WV?$string_output_adapter@_W@__crt_stdio_output@@@2@@__crt_stdio_output@@AAEXII_N@Z 10006fa0 f i libucrt:output.obj
 0001:00006015       ??$type_case_integer_parse_into_buffer@_K@?$output_processor@_WV?$string_output_adapter@_W@__crt_stdio_output@@V?$standard_base@_WV?$string_output_adapter@_W@__crt_stdio_output@@@2@@__crt_stdio_output@@AAEX_KI_N@Z 10007015 f i libucrt:output.obj
 0001:00006015       ??$type_case_integer_parse_into_buffer@_K@?$output_processor@_WV?$stream_output_adapter@_W@__crt_stdio_output@@V?$standard_base@_WV?$stream_output_adapter@_W@__crt_stdio_output@@@2@@__crt_stdio_output@@AAEX_KI_N@Z 10007015 f i libucrt:output.obj
 0001:00006015       ??$type_case_integer_parse_into_buffer@_K@?$output_processor@DV?$string_output_adapter@D@__crt_stdio_output@@V?$format_validation_base@DV?$string_output_adapter@D@__crt_stdio_output@@@2@@__crt_stdio_output@@AAEX_KI_N@Z 10007015 f i libucrt:output.obj
 0001:0000609d       ??$write_multiple_characters@V?$stream_output_adapter@_W@__crt_stdio_output@@D@__crt_stdio_output@@YAXABV?$stream_output_adapter@_W@0@DHQAH@Z 1000709d f i libucrt:output.obj
 0001:000060ce       ??$write_multiple_characters@V?$string_output_adapter@D@__crt_stdio_output@@D@__crt_stdio_output@@YAXABV?$string_output_adapter@D@0@DHQAH@Z 100070ce f i libucrt:output.obj
 0001:000060fa       ??$write_multiple_characters@V?$string_output_adapter@_W@__crt_stdio_output@@D@__crt_stdio_output@@YAXABV?$string_output_adapter@_W@0@DHQAH@Z 100070fa f i libucrt:output.obj
 0001:0000612b       ??0?$common_data@D@__crt_stdio_output@@IAE@XZ 1000712b f i libucrt:output.obj
 0001:00006166       ??0?$common_data@_W@__crt_stdio_output@@IAE@XZ 10007166 f i libucrt:output.obj
 0001:000061a6       ??0?$output_adapter_data@DV?$string_output_adapter@D@__crt_stdio_output@@@__crt_stdio_output@@IAE@ABV?$string_output_adapter@D@1@_KQBDQAU__crt_locale_pointers@@QAD@Z 100071a6 f i libucrt:output.obj
 0001:000061e2       ??0?$output_adapter_data@_WV?$string_output_adapter@_W@__crt_stdio_output@@@__crt_stdio_output@@IAE@ABV?$string_output_adapter@_W@1@_KQB_WQAU__crt_locale_pointers@@QAD@Z 100071e2 f i libucrt:output.obj
 0001:000061e2       ??0?$output_adapter_data@_WV?$stream_output_adapter@_W@__crt_stdio_output@@@__crt_stdio_output@@IAE@ABV?$stream_output_adapter@_W@1@_KQB_WQAU__crt_locale_pointers@@QAD@Z 100071e2 f i libucrt:output.obj
 0001:0000621e       ??0?$output_processor@DV?$string_output_adapter@D@__crt_stdio_output@@V?$format_validation_base@DV?$string_output_adapter@D@__crt_stdio_output@@@2@@__crt_stdio_output@@QAE@ABV?$string_output_adapter@D@1@_KQBDQAU__crt_locale_pointers@@QAD@Z 1000721e f i libucrt:output.obj
 0001:00006253       ??0?$output_processor@_WV?$string_output_adapter@_W@__crt_stdio_output@@V?$standard_base@_WV?$string_output_adapter@_W@__crt_stdio_output@@@2@@__crt_stdio_output@@QAE@ABV?$string_output_adapter@_W@1@_KQB_WQAU__crt_locale_pointers@@QAD@Z 10007253 f i libucrt:output.obj
 0001:00006253       ??0?$output_processor@_WV?$stream_output_adapter@_W@__crt_stdio_output@@V?$standard_base@_WV?$stream_output_adapter@_W@__crt_stdio_output@@@2@@__crt_stdio_output@@QAE@ABV?$stream_output_adapter@_W@1@_KQB_WQAU__crt_locale_pointers@@QAD@Z 10007253 f i libucrt:output.obj
 0001:00006288       ??0_LocaleUpdate@@QAE@QAU__crt_locale_pointers@@@Z 10007288 f i libucrt:output.obj
 0001:0000630b       ??1formatting_buffer@__crt_stdio_output@@QAE@XZ 1000730b f i libucrt:output.obj
 0001:00006325       ??4?$__crt_unique_heap_ptr@DU__crt_internal_free_policy@@@@QAEAAV0@$$QAV0@@Z 10007325 f i libucrt:output.obj
 0001:00006406       ?crop_zeroes@__crt_stdio_output@@YAXPADQAU__crt_locale_pointers@@@Z 10007406 f i libucrt:output.obj
 0001:0000645d       ?find_next_state@?$output_processor@DV?$string_output_adapter@D@__crt_stdio_output@@V?$format_validation_base@DV?$string_output_adapter@D@__crt_stdio_output@@@2@@__crt_stdio_output@@ABE?AW4state@2@DW432@@Z 1000745d f i libucrt:output.obj
 0001:00006492       ?find_next_state@?$output_processor@_WV?$string_output_adapter@_W@__crt_stdio_output@@V?$standard_base@_WV?$string_output_adapter@_W@__crt_stdio_output@@@2@@__crt_stdio_output@@ABE?AW4state@2@_WW432@@Z 10007492 f i libucrt:output.obj
 0001:00006492       ?find_next_state@?$output_processor@_WV?$stream_output_adapter@_W@__crt_stdio_output@@V?$standard_base@_WV?$stream_output_adapter@_W@__crt_stdio_output@@@2@@__crt_stdio_output@@ABE?AW4state@2@_WW432@@Z 10007492 f i libucrt:output.obj
 0001:000064c6       ?force_decimal_point@__crt_stdio_output@@YAXPADQAU__crt_locale_pointers@@@Z 100074c6 f i libucrt:output.obj
 0001:00006522       ?parse_int_from_format_string@?$output_processor@DV?$string_output_adapter@D@__crt_stdio_output@@V?$format_validation_base@DV?$string_output_adapter@D@__crt_stdio_output@@@2@@__crt_stdio_output@@AAE_NQAH@Z 10007522 f i libucrt:output.obj
 0001:0000657e       ?parse_int_from_format_string@?$output_processor@_WV?$stream_output_adapter@_W@__crt_stdio_output@@V?$standard_base@_WV?$stream_output_adapter@_W@__crt_stdio_output@@@2@@__crt_stdio_output@@AAE_NQAH@Z 1000757e f i libucrt:output.obj
 0001:0000657e       ?parse_int_from_format_string@?$output_processor@_WV?$string_output_adapter@_W@__crt_stdio_output@@V?$standard_base@_WV?$string_output_adapter@_W@__crt_stdio_output@@@2@@__crt_stdio_output@@AAE_NQAH@Z 1000757e f i libucrt:output.obj
 0001:000065dc       ?process@?$output_processor@DV?$string_output_adapter@D@__crt_stdio_output@@V?$format_validation_base@DV?$string_output_adapter@D@__crt_stdio_output@@@2@@__crt_stdio_output@@QAEHXZ 100075dc f i libucrt:output.obj
 0001:00006704       ?process@?$output_processor@_WV?$stream_output_adapter@_W@__crt_stdio_output@@V?$standard_base@_WV?$stream_output_adapter@_W@__crt_stdio_output@@@2@@__crt_stdio_output@@QAEHXZ 10007704 f i libucrt:output.obj
 0001:00006824       ?process@?$output_processor@_WV?$string_output_adapter@_W@__crt_stdio_output@@V?$standard_base@_WV?$string_output_adapter@_W@__crt_stdio_output@@@2@@__crt_stdio_output@@QAEHXZ 10007824 f i libucrt:output.obj
 0001:00006944       ?state_case_flag@?$output_processor@DV?$string_output_adapter@D@__crt_stdio_output@@V?$format_validation_base@DV?$string_output_adapter@D@__crt_stdio_output@@@2@@__crt_stdio_output@@AAE_NXZ 10007944 f i libucrt:output.obj
 0001:00006981       ?state_case_flag@?$output_processor@_WV?$string_output_adapter@_W@__crt_stdio_output@@V?$standard_base@_WV?$string_output_adapter@_W@__crt_stdio_output@@@2@@__crt_stdio_output@@AAE_NXZ 10007981 f i libucrt:output.obj
 0001:00006981       ?state_case_flag@?$output_processor@_WV?$stream_output_adapter@_W@__crt_stdio_output@@V?$standard_base@_WV?$stream_output_adapter@_W@__crt_stdio_output@@@2@@__crt_stdio_output@@AAE_NXZ 10007981 f i libucrt:output.obj
 0001:000069be       ?state_case_normal@?$output_processor@DV?$string_output_adapter@D@__crt_stdio_output@@V?$format_validation_base@DV?$string_output_adapter@D@__crt_stdio_output@@@2@@__crt_stdio_output@@AAE_NXZ 100079be f i libucrt:output.obj
 0001:000069dd       ?state_case_normal@?$output_processor@_WV?$stream_output_adapter@_W@__crt_stdio_output@@V?$standard_base@_WV?$stream_output_adapter@_W@__crt_stdio_output@@@2@@__crt_stdio_output@@AAE_NXZ 100079dd f i libucrt:output.obj
 0001:000069fc       ?state_case_normal@?$output_processor@_WV?$string_output_adapter@_W@__crt_stdio_output@@V?$standard_base@_WV?$string_output_adapter@_W@__crt_stdio_output@@@2@@__crt_stdio_output@@AAE_NXZ 100079fc f i libucrt:output.obj
 0001:00006a1b       ?state_case_normal_common@?$output_processor@DV?$string_output_adapter@D@__crt_stdio_output@@V?$format_validation_base@DV?$string_output_adapter@D@__crt_stdio_output@@@2@@__crt_stdio_output@@AAE_NXZ 10007a1b f i libucrt:output.obj
 0001:00006a45       ?state_case_normal_common@?$output_processor@_WV?$stream_output_adapter@_W@__crt_stdio_output@@V?$standard_base@_WV?$stream_output_adapter@_W@__crt_stdio_output@@@2@@__crt_stdio_output@@AAE_NXZ 10007a45 f i libucrt:output.obj
 0001:00006a60       ?state_case_normal_common@?$output_processor@_WV?$string_output_adapter@_W@__crt_stdio_output@@V?$standard_base@_WV?$string_output_adapter@_W@__crt_stdio_output@@@2@@__crt_stdio_output@@AAE_NXZ 10007a60 f i libucrt:output.obj
 0001:00006a7b       ?state_case_normal_tchar@?$output_processor@DV?$string_output_adapter@D@__crt_stdio_output@@V?$format_validation_base@DV?$string_output_adapter@D@__crt_stdio_output@@@2@@__crt_stdio_output@@AAE_ND@Z 10007a7b f i libucrt:output.obj
 0001:00006adc       ?state_case_precision@?$output_processor@DV?$string_output_adapter@D@__crt_stdio_output@@V?$format_validation_base@DV?$string_output_adapter@D@__crt_stdio_output@@@2@@__crt_stdio_output@@AAE_NXZ 10007adc f i libucrt:output.obj
 0001:00006b04       ?state_case_precision@?$output_processor@_WV?$string_output_adapter@_W@__crt_stdio_output@@V?$standard_base@_WV?$string_output_adapter@_W@__crt_stdio_output@@@2@@__crt_stdio_output@@AAE_NXZ 10007b04 f i libucrt:output.obj
 0001:00006b04       ?state_case_precision@?$output_processor@_WV?$stream_output_adapter@_W@__crt_stdio_output@@V?$standard_base@_WV?$stream_output_adapter@_W@__crt_stdio_output@@@2@@__crt_stdio_output@@AAE_NXZ 10007b04 f i libucrt:output.obj
 0001:00006b2d       ?state_case_size@?$output_processor@DV?$string_output_adapter@D@__crt_stdio_output@@V?$format_validation_base@DV?$string_output_adapter@D@__crt_stdio_output@@@2@@__crt_stdio_output@@AAE_NXZ 10007b2d f i libucrt:output.obj
 0001:00006c96       ?state_case_size@?$output_processor@_WV?$stream_output_adapter@_W@__crt_stdio_output@@V?$standard_base@_WV?$stream_output_adapter@_W@__crt_stdio_output@@@2@@__crt_stdio_output@@AAE_NXZ 10007c96 f i libucrt:output.obj
 0001:00006e12       ?state_case_size@?$output_processor@_WV?$string_output_adapter@_W@__crt_stdio_output@@V?$standard_base@_WV?$string_output_adapter@_W@__crt_stdio_output@@@2@@__crt_stdio_output@@AAE_NXZ 10007e12 f i libucrt:output.obj
 0001:00006f8e       ?state_case_type@?$output_processor@DV?$string_output_adapter@D@__crt_stdio_output@@V?$format_validation_base@DV?$string_output_adapter@D@__crt_stdio_output@@@2@@__crt_stdio_output@@AAE_NXZ 10007f8e f i libucrt:output.obj
 0001:000071bd       ?state_case_type@?$output_processor@_WV?$stream_output_adapter@_W@__crt_stdio_output@@V?$standard_base@_WV?$stream_output_adapter@_W@__crt_stdio_output@@@2@@__crt_stdio_output@@AAE_NXZ 100081bd f i libucrt:output.obj
 0001:0000741a       ?state_case_type@?$output_processor@_WV?$string_output_adapter@_W@__crt_stdio_output@@V?$standard_base@_WV?$string_output_adapter@_W@__crt_stdio_output@@@2@@__crt_stdio_output@@AAE_NXZ 1000841a f i libucrt:output.obj
 0001:00007677       ?state_case_width@?$output_processor@DV?$string_output_adapter@D@__crt_stdio_output@@V?$format_validation_base@DV?$string_output_adapter@D@__crt_stdio_output@@@2@@__crt_stdio_output@@AAE_NXZ 10008677 f i libucrt:output.obj
 0001:000076a2       ?state_case_width@?$output_processor@_WV?$string_output_adapter@_W@__crt_stdio_output@@V?$standard_base@_WV?$string_output_adapter@_W@__crt_stdio_output@@@2@@__crt_stdio_output@@AAE_NXZ 100086a2 f i libucrt:output.obj
 0001:000076a2       ?state_case_width@?$output_processor@_WV?$stream_output_adapter@_W@__crt_stdio_output@@V?$standard_base@_WV?$stream_output_adapter@_W@__crt_stdio_output@@@2@@__crt_stdio_output@@AAE_NXZ 100086a2 f i libucrt:output.obj
 0001:000076ce       ?to_integer_size@__crt_stdio_output@@YAIW4length_modifier@1@@Z 100086ce f i libucrt:output.obj
 0001:0000772a       ?type_case_Z@?$output_processor@DV?$string_output_adapter@D@__crt_stdio_output@@V?$format_validation_base@DV?$string_output_adapter@D@__crt_stdio_output@@@2@@__crt_stdio_output@@AAE_NXZ 1000872a f i libucrt:output.obj
 0001:0000778d       ?type_case_Z@?$output_processor@_WV?$stream_output_adapter@_W@__crt_stdio_output@@V?$standard_base@_WV?$stream_output_adapter@_W@__crt_stdio_output@@@2@@__crt_stdio_output@@AAE_NXZ 1000878d f i libucrt:output.obj
 0001:0000778d       ?type_case_Z@?$output_processor@_WV?$string_output_adapter@_W@__crt_stdio_output@@V?$standard_base@_WV?$string_output_adapter@_W@__crt_stdio_output@@@2@@__crt_stdio_output@@AAE_NXZ 1000878d f i libucrt:output.obj
 0001:000077f0       ?type_case_a@?$output_processor@DV?$string_output_adapter@D@__crt_stdio_output@@V?$format_validation_base@DV?$string_output_adapter@D@__crt_stdio_output@@@2@@__crt_stdio_output@@AAE_NXZ 100087f0 f i libucrt:output.obj
 0001:0000794a       ?type_case_a@?$output_processor@_WV?$string_output_adapter@_W@__crt_stdio_output@@V?$standard_base@_WV?$string_output_adapter@_W@__crt_stdio_output@@@2@@__crt_stdio_output@@AAE_NXZ 1000894a f i libucrt:output.obj
 0001:0000794a       ?type_case_a@?$output_processor@_WV?$stream_output_adapter@_W@__crt_stdio_output@@V?$standard_base@_WV?$stream_output_adapter@_W@__crt_stdio_output@@@2@@__crt_stdio_output@@AAE_NXZ 1000894a f i libucrt:output.obj
 0001:00007abc       ?type_case_c_tchar@?$output_processor@DV?$string_output_adapter@D@__crt_stdio_output@@V?$format_validation_base@DV?$string_output_adapter@D@__crt_stdio_output@@@2@@__crt_stdio_output@@AAE_ND@Z 10008abc f i libucrt:output.obj
 0001:00007b4c       ?type_case_c_tchar@?$output_processor@_WV?$stream_output_adapter@_W@__crt_stdio_output@@V?$standard_base@_WV?$stream_output_adapter@_W@__crt_stdio_output@@@2@@__crt_stdio_output@@AAE_N_W@Z 10008b4c f i libucrt:output.obj
 0001:00007b4c       ?type_case_c_tchar@?$output_processor@_WV?$string_output_adapter@_W@__crt_stdio_output@@V?$standard_base@_WV?$string_output_adapter@_W@__crt_stdio_output@@@2@@__crt_stdio_output@@AAE_N_W@Z 10008b4c f i libucrt:output.obj
 0001:00007be4       ?type_case_integer@?$output_processor@DV?$string_output_adapter@D@__crt_stdio_output@@V?$format_validation_base@DV?$string_output_adapter@D@__crt_stdio_output@@@2@@__crt_stdio_output@@AAE_NI_N@Z 10008be4 f i libucrt:output.obj
 0001:00007be4       ?type_case_integer@?$output_processor@_WV?$stream_output_adapter@_W@__crt_stdio_output@@V?$standard_base@_WV?$stream_output_adapter@_W@__crt_stdio_output@@@2@@__crt_stdio_output@@AAE_NI_N@Z 10008be4 f i libucrt:output.obj
 0001:00007be4       ?type_case_integer@?$output_processor@_WV?$string_output_adapter@_W@__crt_stdio_output@@V?$standard_base@_WV?$string_output_adapter@_W@__crt_stdio_output@@@2@@__crt_stdio_output@@AAE_NI_N@Z 10008be4 f i libucrt:output.obj
 0001:00007d1e       ?type_case_n@?$output_processor@_WV?$stream_output_adapter@_W@__crt_stdio_output@@V?$standard_base@_WV?$stream_output_adapter@_W@__crt_stdio_output@@@2@@__crt_stdio_output@@AAE_NXZ 10008d1e f i libucrt:output.obj
 0001:00007d1e       ?type_case_n@?$output_processor@_WV?$string_output_adapter@_W@__crt_stdio_output@@V?$standard_base@_WV?$string_output_adapter@_W@__crt_stdio_output@@@2@@__crt_stdio_output@@AAE_NXZ 10008d1e f i libucrt:output.obj
 0001:00007d1e       ?type_case_n@?$output_processor@DV?$string_output_adapter@D@__crt_stdio_output@@V?$format_validation_base@DV?$string_output_adapter@D@__crt_stdio_output@@@2@@__crt_stdio_output@@AAE_NXZ 10008d1e f i libucrt:output.obj
 0001:00007d92       ?type_case_o@?$output_processor@_WV?$stream_output_adapter@_W@__crt_stdio_output@@V?$standard_base@_WV?$stream_output_adapter@_W@__crt_stdio_output@@@2@@__crt_stdio_output@@AAE_NXZ 10008d92 f i libucrt:output.obj
 0001:00007d92       ?type_case_o@?$output_processor@_WV?$string_output_adapter@_W@__crt_stdio_output@@V?$standard_base@_WV?$string_output_adapter@_W@__crt_stdio_output@@@2@@__crt_stdio_output@@AAE_NXZ 10008d92 f i libucrt:output.obj
 0001:00007d92       ?type_case_o@?$output_processor@DV?$string_output_adapter@D@__crt_stdio_output@@V?$format_validation_base@DV?$string_output_adapter@D@__crt_stdio_output@@@2@@__crt_stdio_output@@AAE_NXZ 10008d92 f i libucrt:output.obj
 0001:00007db1       ?type_case_p@?$output_processor@_WV?$string_output_adapter@_W@__crt_stdio_output@@V?$standard_base@_WV?$string_output_adapter@_W@__crt_stdio_output@@@2@@__crt_stdio_output@@AAE_NXZ 10008db1 f i libucrt:output.obj
 0001:00007db1       ?type_case_p@?$output_processor@_WV?$stream_output_adapter@_W@__crt_stdio_output@@V?$standard_base@_WV?$stream_output_adapter@_W@__crt_stdio_output@@@2@@__crt_stdio_output@@AAE_NXZ 10008db1 f i libucrt:output.obj
 0001:00007db1       ?type_case_p@?$output_processor@DV?$string_output_adapter@D@__crt_stdio_output@@V?$format_validation_base@DV?$string_output_adapter@D@__crt_stdio_output@@@2@@__crt_stdio_output@@AAE_NXZ 10008db1 f i libucrt:output.obj
 0001:00007dc9       ?type_case_s@?$output_processor@DV?$string_output_adapter@D@__crt_stdio_output@@V?$format_validation_base@DV?$string_output_adapter@D@__crt_stdio_output@@@2@@__crt_stdio_output@@AAE_NXZ 10008dc9 f i libucrt:output.obj
 0001:00007e3c       ?type_case_s@?$output_processor@_WV?$string_output_adapter@_W@__crt_stdio_output@@V?$standard_base@_WV?$string_output_adapter@_W@__crt_stdio_output@@@2@@__crt_stdio_output@@AAE_NXZ 10008e3c f i libucrt:output.obj
 0001:00007e3c       ?type_case_s@?$output_processor@_WV?$stream_output_adapter@_W@__crt_stdio_output@@V?$standard_base@_WV?$stream_output_adapter@_W@__crt_stdio_output@@@2@@__crt_stdio_output@@AAE_NXZ 10008e3c f i libucrt:output.obj
 0001:00007eb0       ?type_case_s_compute_narrow_string_length@?$output_processor@_WV?$string_output_adapter@_W@__crt_stdio_output@@V?$standard_base@_WV?$string_output_adapter@_W@__crt_stdio_output@@@2@@__crt_stdio_output@@ABEHH_W@Z 10008eb0 f i libucrt:output.obj
 0001:00007eb0       ?type_case_s_compute_narrow_string_length@?$output_processor@_WV?$stream_output_adapter@_W@__crt_stdio_output@@V?$standard_base@_WV?$stream_output_adapter@_W@__crt_stdio_output@@@2@@__crt_stdio_output@@ABEHH_W@Z 10008eb0 f i libucrt:output.obj
 0001:00007ef0       ?validate@?$string_output_adapter@D@__crt_stdio_output@@QBE_NXZ 10008ef0 f i libucrt:output.obj
 0001:00007ef0       ?validate@?$stream_output_adapter@_W@__crt_stdio_output@@QBE_NXZ 10008ef0 f i libucrt:output.obj
 0001:00007ef0       ?validate@?$string_output_adapter@_W@__crt_stdio_output@@QBE_NXZ 10008ef0 f i libucrt:output.obj
 0001:00007f0b       ?validate_and_update_state_at_end_of_format_string@?$format_validation_base@DV?$string_output_adapter@D@__crt_stdio_output@@@__crt_stdio_output@@IBE_NXZ 10008f0b f i libucrt:output.obj
 0001:00007f2d       ?write_character@?$stream_output_adapter@_W@__crt_stdio_output@@QBEX_WQAH@Z 10008f2d f i libucrt:output.obj
 0001:00007f6d       ?write_character@?$string_output_adapter@D@__crt_stdio_output@@QBE_NDQAH@Z 10008f6d f i libucrt:output.obj
 0001:00007faf       ?write_character@?$string_output_adapter@_W@__crt_stdio_output@@QBE_N_WQAH@Z 10008faf f i libucrt:output.obj
 0001:00007ff7       ?write_stored_string_tchar@?$output_processor@DV?$string_output_adapter@D@__crt_stdio_output@@V?$format_validation_base@DV?$string_output_adapter@D@__crt_stdio_output@@@2@@__crt_stdio_output@@AAE_ND@Z 10008ff7 f i libucrt:output.obj
 0001:0000809e       ?write_stored_string_tchar@?$output_processor@_WV?$stream_output_adapter@_W@__crt_stdio_output@@V?$standard_base@_WV?$stream_output_adapter@_W@__crt_stdio_output@@@2@@__crt_stdio_output@@AAE_N_W@Z 1000909e f i libucrt:output.obj
 0001:00008129       ?write_stored_string_tchar@?$output_processor@_WV?$string_output_adapter@_W@__crt_stdio_output@@V?$standard_base@_WV?$string_output_adapter@_W@__crt_stdio_output@@@2@@__crt_stdio_output@@AAE_N_W@Z 10009129 f i libucrt:output.obj
 0001:000081b4       ?write_string@?$stream_output_adapter@_W@__crt_stdio_output@@QBEXQB_WHQAH1@Z 100091b4 f i libucrt:output.obj
 0001:00008241       ?write_string@?$string_output_adapter@D@__crt_stdio_output@@QBEXQBDHQAH1@Z 10009241 f i libucrt:output.obj
 0001:000082d4       ?write_string@?$string_output_adapter@_W@__crt_stdio_output@@QBEXQB_WHQAH1@Z 100092d4 f i libucrt:output.obj
 0001:0000836e       ___stdio_common_vfwprintf  1000936e f   libucrt:output.obj
 0001:000083e5       ___stdio_common_vsnprintf_s 100093e5 f   libucrt:output.obj
 0001:0000840c       ___stdio_common_vswprintf  1000940c f   libucrt:output.obj
 0001:00008430       ??$is_overflow_condition@_K@__crt_strtox@@YA_NI_K@Z 10009430 f i libucrt:strtox.obj
 0001:00008480       ??$make_c_string_character_source@_WPAPA_W@__crt_strtox@@YA?AV?$c_string_character_source@_W@0@QB_WQAPA_W@Z 10009480 f i libucrt:strtox.obj
 0001:00008480       ??$make_c_string_character_source@DPAPAD@__crt_strtox@@YA?AV?$c_string_character_source@D@0@QBDQAPAD@Z 10009480 f i libucrt:strtox.obj
 0001:000084a0       ??$parse_integer@KV?$c_string_character_source@D@__crt_strtox@@@__crt_strtox@@YAKQAU__crt_locale_pointers@@V?$c_string_character_source@D@0@H_N@Z 100094a0 f i libucrt:strtox.obj
 0001:00008700       ??$parse_integer@KV?$c_string_character_source@_W@__crt_strtox@@@__crt_strtox@@YAKQAU__crt_locale_pointers@@V?$c_string_character_source@_W@0@H_N@Z 10009700 f i libucrt:strtox.obj
 0001:00008e70       ??$parse_integer@_KV?$c_string_character_source@D@__crt_strtox@@@__crt_strtox@@YA_KQAU__crt_locale_pointers@@V?$c_string_character_source@D@0@H_N@Z 10009e70 f i libucrt:strtox.obj
 0001:00009130       ?unget@?$c_string_character_source@D@__crt_strtox@@QAEXD@Z 1000a130 f i libucrt:strtox.obj
 0001:00009160       ?unget@?$c_string_character_source@_W@__crt_strtox@@QAEX_W@Z 1000a160 f i libucrt:strtox.obj
 0001:0000918c       __chvalidchk_l             1000a18c f i libucrt:strtox.obj
 0001:000091b6       __ischartype_l             1000a1b6 f i libucrt:strtox.obj
 0001:000091f0       __strtoi64                 1000a1f0 f   libucrt:strtox.obj
 0001:00009220       __strtoui64                1000a220 f   libucrt:strtox.obj
 0001:00009250       _strtol                    1000a250 f   libucrt:strtox.obj
 0001:00009280       _wcstol                    1000a280 f   libucrt:strtox.obj
 0001:000092ad       ___acrt_errno_from_os_error 1000a2ad f   libucrt:errno.obj
 0001:000092f0       ___acrt_errno_map_os_error 1000a2f0 f   libucrt:errno.obj
 0001:00009313       ___doserrno                1000a313 f   libucrt:errno.obj
 0001:00009326       __errno                    1000a326 f   libucrt:errno.obj
 0001:0000999d       ??$ftprintf@PAU_iobuf@@PB_WABQB_WABQB_WABI@?$__crt_char_traits@_W@@SAH$$QAPAU_iobuf@@$$QAPB_WABQB_W2ABI@Z 1000a99d f i libucrt:assert.obj
 0001:00009a7c       __vfwprintf_l              1000aa7c f i libucrt:assert.obj
 0001:00009aa1       __vswprintf_c_l            1000aaa1 f i libucrt:assert.obj
 0001:00009ad0       __wassert                  1000aad0 f   libucrt:assert.obj
 0001:00009b18       _fwprintf                  1000ab18 f i libucrt:assert.obj
 0001:00009bb4       _swprintf                  1000abb4 f i libucrt:assert.obj
 0001:00009bd2       ___ascii_stricmp           1000abd2 f   libucrt:stricmp.obj
 0001:00009c0d       __stricmp                  1000ac0d f   libucrt:stricmp.obj
 0001:00009c55       __stricmp_l                1000ac55 f   libucrt:stricmp.obj
 0001:00009cef       ___acrt_initialize_new_handler 1000acef f   libucrt:new_handler.obj
 0001:00009d03       __callnewh                 1000ad03 f   libucrt:new_handler.obj
 0001:00009d47       __query_new_handler        1000ad47 f   libucrt:new_handler.obj
 0001:00009d99       _malloc                    1000ad99 f   libucrt:malloc.obj
 0001:00009da4       __initterm                 1000ada4 f   libucrt:initterm.obj
 0001:00009e00       __initterm_e               1000ae00 f   libucrt:initterm.obj
 0001:00009e45       _free                      1000ae45 f   libucrt:free.obj
 0001:00009e4a       __seh_filter_dll           1000ae4a f   libucrt:exception_filter.obj
 0001:00009e6a       __seh_filter_exe           1000ae6a f   libucrt:exception_filter.obj
 0001:0000a1cf       ___acrt_initialize_thread_local_exit_callback 1000b1cf f   libucrt:exit.obj
 0001:0000a1de       __cexit                    1000b1de f   libucrt:exit.obj
 0001:0000a1ed       __exit                     1000b1ed f   libucrt:exit.obj
 0001:0000a203       __is_c_termination_complete 1000b203 f   libucrt:exit.obj
 0001:0000a362       ??$uninitialize@A6AXAAPAPAD@Z@?$dual_state_global@PAPAD@__crt_state_management@@QAEXA6AXAAPAPAD@Z@Z 1000b362 f i libucrt:environment_initialization.obj
 0001:0000a362       ??$uninitialize@A6AXAAPAPA_W@Z@?$dual_state_global@PAPA_W@__crt_state_management@@QAEXA6AXAAPAPA_W@Z@Z 1000b362 f i libucrt:environment_initialization.obj
 0001:0000a3d8       ___dcrt_uninitialize_environments_nolock 1000b3d8 f   libucrt:environment_initialization.obj
 0001:0000a40f       __initialize_narrow_environment 1000b40f f   libucrt:environment_initialization.obj
 0001:0000a414       ??$__crt_fast_encode_pointer@P6AHXZ@@YAP6AHXZQ6AHXZ@Z 1000b414 f i libucrt:onexit.obj
 0001:0000a48d       __crt_atexit               1000b48d f   libucrt:onexit.obj
 0001:0000a4aa       __execute_onexit_table     1000b4aa f   libucrt:onexit.obj
 0001:0000a5b8       __initialize_onexit_table  1000b5b8 f   libucrt:onexit.obj
 0001:0000a5f5       __register_onexit_function 1000b5f5 f   libucrt:onexit.obj
 0001:0000a75a       ___acrt_uninitialize_command_line 1000b75a f   libucrt:argv_data.obj
 0001:0000a822       ?initialize@?$dual_state_global@P6AHPAU_exception@@@Z@__crt_state_management@@QAEXQ6AHPAU_exception@@@Z@Z 1000b822 f i libucrt:matherr.obj
 0001:0000a822       ?initialize@?$dual_state_global@P6AHI@Z@__crt_state_management@@QAEXQ6AHI@Z@Z 1000b822 f i libucrt:new_handler.obj
 0001:0000a822       ?initialize@?$dual_state_global@PAU__crt_locale_data@@@__crt_state_management@@QAEXQAU__crt_locale_data@@@Z 1000b822 f i libucrt:initialization.obj
 0001:0000a822       ?initialize@?$dual_state_global@P6AXH@Z@__crt_state_management@@QAEXQ6AXH@Z@Z 1000b822 f i libucrt:signal.obj
 0001:0000a822       ?initialize@?$dual_state_global@PAPAD@__crt_state_management@@QAEXQAPAD@Z 1000b822 f i libucrt:environment_initialization.obj
 0001:0000a822       ?initialize@?$dual_state_global@P6AXPB_W00II@Z@__crt_state_management@@QAEXQ6AXPB_W00II@Z@Z 1000b822 f i libucrt:invalid_parameter.obj
 0001:0000a853       ___acrt_initialize         1000b853 f   libucrt:initialization.obj
 0001:0000a865       ___acrt_thread_attach      1000b865 f   libucrt:initialization.obj
 0001:0000a870       ___acrt_thread_detach      1000b870 f   libucrt:initialization.obj
 0001:0000a878       ___acrt_uninitialize       1000b878 f   libucrt:initialization.obj
 0001:0000a88a       ___acrt_uninitialize_critical 1000b88a f   libucrt:initialization.obj
 0001:0000a89c       _terminate                 1000b89c f   libucrt:terminate.obj
 0001:0000a8d8       _strcpy_s                  1000b8d8 f   libucrt:strcpy_s.obj
 0001:0000a932       __free_base                1000b932 f   libucrt:free_base.obj
 0001:0000a96c       __malloc_base              1000b96c f   libucrt:malloc_base.obj
 0001:0000a9ba       _abort                     1000b9ba f   libucrt:abort.obj
 0001:0000a9fd       __calloc_base              1000b9fd f   libucrt:calloc_base.obj
 0001:0000aa5a       ___acrt_call_reportfault   1000ba5a f   libucrt:invalid_parameter.obj
 0001:0000ab95       ___acrt_initialize_invalid_parameter_handler 1000bb95 f   libucrt:invalid_parameter.obj
 0001:0000aba9       __invalid_parameter        1000bba9 f   libucrt:invalid_parameter.obj
 0001:0000ac24       __invalid_parameter_noinfo 1000bc24 f   libucrt:invalid_parameter.obj
 0001:0000ac34       __invoke_watson            1000bc34 f   libucrt:invalid_parameter.obj
 0001:0000ac67       __isdigit_l                1000bc67 f i libucrt:_ctype.obj
 0001:0000ac9f       _isdigit                   1000bc9f f i libucrt:_ctype.obj
 0001:0000ae33       __tolower_l                1000be33 f   libucrt:tolower_toupper.obj
 0001:0000ae4d       _tolower                   1000be4d f   libucrt:tolower_toupper.obj
 0001:0000ae7d       __mbtowc_l                 1000be7d f   libucrt:mbtowc.obj
 0001:0000af77       _mbtowc                    1000bf77 f   libucrt:mbtowc.obj
 0001:0000af91       __wctomb_s_l               1000bf91 f   libucrt:wctomb.obj
 0001:0000b0b2       _wctomb_s                  1000c0b2 f   libucrt:wctomb.obj
 0001:0000b0cf       _strnlen                   1000c0cf f   libucrt:strnlen.obj
 0001:0000b1f6       _wcsnlen                   1000c1f6 f   libucrt:strnlen.obj
 0001:0000b3ad       ??$?RV<lambda_3518db117f0e7cdb002338c5d3c47b6c>@@AAV<lambda_b2ea41f6bbb362cd97d94c6828d90b61>@@V<lambda_abdedf541bb04549bc734292b4a045d4>@@@?$__crt_seh_guarded_call@X@@QAEX$$QAV<lambda_3518db117f0e7cdb002338c5d3c47b6c>@@AAV<lambda_b2ea41f6bbb362cd97d94c6828d90b61>@@$$QAV<lambda_abdedf541bb04549bc734292b4a045d4>@@@Z 1000c3ad f i libucrt:per_thread_data.obj
 0001:0000b3fd       ??$?RV<lambda_51b6e8b1eb166f2a3faf91f424b38130>@@AAV<lambda_6250bd4b2a391816dd638c3bf72b0bcb>@@V<lambda_0b5a4a3e68152e1d9b943535f5f47bed>@@@?$__crt_seh_guarded_call@X@@QAEX$$QAV<lambda_51b6e8b1eb166f2a3faf91f424b38130>@@AAV<lambda_6250bd4b2a391816dd638c3bf72b0bcb>@@$$QAV<lambda_0b5a4a3e68152e1d9b943535f5f47bed>@@@Z 1000c3fd f i libucrt:per_thread_data.obj
 0001:0000b45e       ??$?RV<lambda_5b71d36f03204c0beab531769a5b5694>@@AAV<lambda_be2b3da3f62db62e9dad5dc70221a656>@@V<lambda_8f9ce462984622f9bf76b59e2aaaf805>@@@?$__crt_seh_guarded_call@X@@QAEX$$QAV<lambda_5b71d36f03204c0beab531769a5b5694>@@AAV<lambda_be2b3da3f62db62e9dad5dc70221a656>@@$$QAV<lambda_8f9ce462984622f9bf76b59e2aaaf805>@@@Z 1000c45e f i libucrt:per_thread_data.obj
 0001:0000b4a9       ??$?RV<lambda_9df27f884b057bc3edfc946cb5b7cf47>@@AAV<lambda_e69574bed617af4e071282c136b37893>@@V<lambda_cc0d902bcbbeb830f749456577db4721>@@@?$__crt_seh_guarded_call@X@@QAEX$$QAV<lambda_9df27f884b057bc3edfc946cb5b7cf47>@@AAV<lambda_e69574bed617af4e071282c136b37893>@@$$QAV<lambda_cc0d902bcbbeb830f749456577db4721>@@@Z 1000c4a9 f i libucrt:per_thread_data.obj
 0001:0000b4f1       ??$__acrt_lock_and_call@V<lambda_6250bd4b2a391816dd638c3bf72b0bcb>@@@@YAXW4__acrt_lock_id@@$$QAV<lambda_6250bd4b2a391816dd638c3bf72b0bcb>@@@Z 1000c4f1 f i libucrt:per_thread_data.obj
 0001:0000b519       ??$__acrt_lock_and_call@V<lambda_b2ea41f6bbb362cd97d94c6828d90b61>@@@@YAXW4__acrt_lock_id@@$$QAV<lambda_b2ea41f6bbb362cd97d94c6828d90b61>@@@Z 1000c519 f i libucrt:per_thread_data.obj
 0001:0000b541       ??$__acrt_lock_and_call@V<lambda_be2b3da3f62db62e9dad5dc70221a656>@@@@YAXW4__acrt_lock_id@@$$QAV<lambda_be2b3da3f62db62e9dad5dc70221a656>@@@Z 1000c541 f i libucrt:per_thread_data.obj
 0001:0000b569       ??$__acrt_lock_and_call@V<lambda_e69574bed617af4e071282c136b37893>@@@@YAXW4__acrt_lock_id@@$$QAV<lambda_e69574bed617af4e071282c136b37893>@@@Z 1000c569 f i libucrt:per_thread_data.obj
 0001:0000b711       ___acrt_freeptd            1000c711 f   libucrt:per_thread_data.obj
 0001:0000b73d       ___acrt_getptd             1000c73d f   libucrt:per_thread_data.obj
 0001:0000b7c1       ___acrt_getptd_noexit      1000c7c1 f   libucrt:per_thread_data.obj
 0001:0000b846       ___acrt_initialize_ptd     1000c846 f   libucrt:per_thread_data.obj
 0001:0000b872       ___acrt_uninitialize_ptd   1000c872 f   libucrt:per_thread_data.obj
 0001:0000b88c       ___acrt_update_locale_info 1000c88c f   libucrt:locale_update.obj
 0001:0000b8b9       ___acrt_update_multibyte_info 1000c8b9 f   libucrt:locale_update.obj
 0001:0000b8e6       ?__acrt_fp_classify@@YA?AW4__acrt_fp_class@@ABN@Z 1000c8e6 f i libucrt:cvt.obj
 0001:0000b952       ?__acrt_fp_is_negative@@YA_NABN@Z 1000c952 f i libucrt:cvt.obj
 0001:0000c1b1       ___acrt_fp_format          1000d1b1 f   libucrt:cvt.obj
 0001:0000c32d       __fputwc_nolock            1000d32d f   libucrt:fputwc.obj
 0001:0000c453       __fileno                   1000d453 f   libucrt:fileno.obj
 0001:0000c479       ___acrt_initialize_stdio   1000d479 f   libucrt:_file.obj
 0001:0000c541       ___acrt_iob_func           1000d541 f   libucrt:_file.obj
 0001:0000c551       ___acrt_uninitialize_stdio 1000d551 f   libucrt:_file.obj
 0001:0000c59d       __lock_file                1000d59d f   libucrt:_file.obj
 0001:0000c5b1       __unlock_file              1000d5b1 f   libucrt:_file.obj
 0001:0000c5c5       __fputc_nolock             1000d5c5 f   libucrt:fputc.obj
 0001:0000c5ee       __get_printf_count_output  1000d5ee f   libucrt:printf_count_output.obj
 0001:0000c603       ___acrt_stdio_begin_temporary_buffering_nolock 1000d603 f   libucrt:_sftbuf.obj
 0001:0000c6b8       ___acrt_stdio_end_temporary_buffering_nolock 1000d6b8 f   libucrt:_sftbuf.obj
 0001:0000c6f1       ___acrt_set_locale_changed 1000d6f1 f   libucrt:wsetlocale.obj
 0001:0000c6fc       ___acrt_uninitialize_locale 1000d6fc f   libucrt:wsetlocale.obj
 0001:0000c8ba       ___acrt_initialize_lowio   1000d8ba f   libucrt:ioinit.obj
 0001:0000c910       ___acrt_uninitialize_lowio 1000d910 f   libucrt:ioinit.obj
 0001:0000c93c       ___pctype_func             1000d93c f   libucrt:ctype.obj
 0001:0000c962       _iswctype                  1000d962 f   libucrt:iswctype.obj
 0001:0000c9c1       __isctype_l                1000d9c1 f   libucrt:isctype.obj
 0001:0000ca93       __query_app_type           1000da93 f   libucrt:report_runtime_error.obj
 0001:0000cb86       __itow_s                   1000db86 f   libucrt:xtoa.obj
 0001:0000cbbb       __set_error_mode           1000dbbb f   libucrt:set_error_mode.obj
 0001:0000cbfa       _wcscat_s                  1000dbfa f   libucrt:wcscat_s.obj
 0001:0000cc6f       _wcscpy_s                  1000dc6f f   libucrt:wcscpy_s.obj
 0001:0000cdbc       _wcsncat_s                 1000ddbc f   libucrt:wcsncat_s.obj
 0001:0000cec2       ___acrt_show_wide_message_box 1000dec2 f   libucrt:crtmbox.obj
 0001:0000cecd       ___acrt_stdio_flush_nolock 1000decd f   libucrt:fflush.obj
 0001:0000cf31       __fflush_nolock            1000df31 f   libucrt:fflush.obj
 0001:0000cf78       __flushall                 1000df78 f   libucrt:fflush.obj
 0001:0000d059       _fflush                    1000e059 f   libucrt:fflush.obj
 0001:0000d0b2       ??$?RV<lambda_d92cfe8357b99225085016881b624cb0>@@AAV<lambda_b721fa326cdb32351d23dfa67958c160>@@V<lambda_42d75b0848218ec137fa420c8ba9fdf9>@@@?$__crt_seh_guarded_call@H@@QAEH$$QAV<lambda_d92cfe8357b99225085016881b624cb0>@@AAV<lambda_b721fa326cdb32351d23dfa67958c160>@@$$QAV<lambda_42d75b0848218ec137fa420c8ba9fdf9>@@@Z 1000e0b2 f i libucrt:setvbuf.obj
 0001:0000d103       ??$__acrt_lock_stream_and_call@V<lambda_b721fa326cdb32351d23dfa67958c160>@@@@YAHQAU_iobuf@@$$QAV<lambda_b721fa326cdb32351d23dfa67958c160>@@@Z 1000e103 f i libucrt:setvbuf.obj
 0001:0000d1f8       _setvbuf                   1000e1f8 f   libucrt:setvbuf.obj
 0001:0000d26e       ??$?RV<lambda_a048d3beccc847880fc8490e18b82769>@@AAV<lambda_ec61778202f4f5fc7e7711acc23c3bca>@@V<lambda_f7496a158712204296dd6628a163878e>@@@?$__crt_seh_guarded_call@P6AXH@Z@@QAEP6AXH@Z$$QAV<lambda_a048d3beccc847880fc8490e18b82769>@@AAV<lambda_ec61778202f4f5fc7e7711acc23c3bca>@@$$QAV<lambda_f7496a158712204296dd6628a163878e>@@@Z 1000e26e f i libucrt:signal.obj
 0001:0000d2c8       ??$__acrt_lock_and_call@V<lambda_ec61778202f4f5fc7e7711acc23c3bca>@@@@YAP6AXH@ZW4__acrt_lock_id@@$$QAV<lambda_ec61778202f4f5fc7e7711acc23c3bca>@@@Z 1000e2c8 f i libucrt:signal.obj
 0001:0000d35a       ___acrt_get_sigabrt_handler 1000e35a f   libucrt:signal.obj
 0001:0000d371       ___acrt_initialize_signal_handlers 1000e371 f   libucrt:signal.obj
 0001:0000d3ac       ___fpecode                 1000e3ac f   libucrt:signal.obj
 0001:0000d3b5       _raise                     1000e3b5 f   libucrt:signal.obj
 0001:0000d5bd       ___acrt_initialize_locks   1000e5bd f   libucrt:locks.obj
 0001:0000d5fe       ___acrt_lock               1000e5fe f   libucrt:locks.obj
 0001:0000d615       ___acrt_uninitialize_locks 1000e615 f   libucrt:locks.obj
 0001:0000d646       ___acrt_unlock             1000e646 f   libucrt:locks.obj
 0001:0000d65d       ??$?RV<lambda_978dc153c237d78434369da87b74ff60>@@AAV<lambda_ad1ced32f4ac17aa236e5ef05d6b3b7c>@@V<lambda_4a8533e2866a575feecb8298ce776b0d>@@@?$__crt_seh_guarded_call@X@@QAEX$$QAV<lambda_978dc153c237d78434369da87b74ff60>@@AAV<lambda_ad1ced32f4ac17aa236e5ef05d6b3b7c>@@$$QAV<lambda_4a8533e2866a575feecb8298ce776b0d>@@@Z 1000e65d f i libucrt:mbctype.obj
 0001:0000d6a0       ??$__acrt_lock_and_call@V<lambda_ad1ced32f4ac17aa236e5ef05d6b3b7c>@@@@YAXW4__acrt_lock_id@@$$QAV<lambda_ad1ced32f4ac17aa236e5ef05d6b3b7c>@@@Z 1000e6a0 f i libucrt:mbctype.obj
 0001:0000db37       ___acrt_initialize_multibyte 1000eb37 f   libucrt:mbctype.obj
 0001:0000db55       ___acrt_update_thread_multibyte_data 1000eb55 f   libucrt:mbctype.obj
 0001:0000dbf7       __setmbcp_nolock           1000ebf7 f   libucrt:mbctype.obj
 0001:0000de1f       ___dcrt_get_narrow_environment_from_os 1000ee1f f   libucrt:get_environment_from_os.obj
 0001:0000dea2       __recalloc                 1000eea2 f   libucrt:recalloc.obj
 0001:0000dead       __recalloc_base            1000eead f   libucrt:recalloc.obj
 0001:0000e065       ___acrt_FlsAlloc@4         1000f065 f   libucrt:winapi_thunks.obj
 0001:0000e0bb       ___acrt_FlsFree@4          1000f0bb f   libucrt:winapi_thunks.obj
 0001:0000e111       ___acrt_FlsGetValue@4      1000f111 f   libucrt:winapi_thunks.obj
 0001:0000e167       ___acrt_FlsSetValue@8      1000f167 f   libucrt:winapi_thunks.obj
 0001:0000e1c0       ___acrt_InitializeCriticalSectionEx@12 1000f1c0 f   libucrt:winapi_thunks.obj
 0001:0000e222       ___acrt_LCMapStringEx@36   1000f222 f   libucrt:winapi_thunks.obj
 0001:0000e2aa       ___acrt_LocaleNameToLCID@8 1000f2aa f   libucrt:winapi_thunks.obj
 0001:0000e306       ___acrt_MessageBoxW@16     1000f306 f   libucrt:winapi_thunks.obj
 0001:0000e34f       ___acrt_can_show_message_box 1000f34f f   libucrt:winapi_thunks.obj
 0001:0000e368       ___acrt_get_parent_window  1000f368 f   libucrt:winapi_thunks.obj
 0001:0000e3e7       ___acrt_initialize_winapi_thunks 1000f3e7 f   libucrt:winapi_thunks.obj
 0001:0000e40d       ___acrt_is_interactive     1000f40d f   libucrt:winapi_thunks.obj
 0001:0000e4b3       ___acrt_is_packaged_app    1000f4b3 f   libucrt:winapi_thunks.obj
 0001:0000e53a       ___acrt_uninitialize_winapi_thunks 1000f53a f   libucrt:winapi_thunks.obj
 0001:0000e570       ___acrt_initialize_heap    1000f570 f   libucrt:heap_handle.obj
 0001:0000e581       ___acrt_uninitialize_heap  1000f581 f   libucrt:heap_handle.obj
 0001:0000e58b       ___acrt_initialize_command_line 1000f58b f   libucrt:argv_data.obj
 0001:0000e5a4       ___acrt_execute_initializers 1000f5a4 f   libucrt:shared_initialization.obj
 0001:0000e627       ___acrt_execute_uninitializers 1000f627 f   libucrt:shared_initialization.obj
 0001:0000e674       ___acrt_has_user_matherr   1000f674 f   libucrt:matherr.obj
 0001:0000e68d       ___acrt_initialize_user_matherr 1000f68d f   libucrt:matherr.obj
 0001:0000e6a1       ___acrt_invoke_user_matherr 1000f6a1 f   libucrt:matherr.obj
 0001:0000e6ea       __query_new_mode           1000f6ea f   libucrt:new_mode.obj
 0001:0000e6f0       __isleadbyte_l             1000f6f0 f i libucrt:_wctype.obj
 0001:0000e946       ___acrt_LCMapStringA       1000f946 f   libucrt:lcmapstringa.obj
 0001:0000e991       __freea_crt                1000f991 f i libucrt:lcmapstringa.obj
 0001:0000e9b1       ___acrt_add_locale_ref     1000f9b1 f   libucrt:locale_refcounting.obj
 0001:0000ea30       ___acrt_free_locale        1000fa30 f   libucrt:locale_refcounting.obj
 0001:0000eb94       ___acrt_release_locale_ref 1000fb94 f   libucrt:locale_refcounting.obj
 0001:0000ec17       ___acrt_update_thread_locale_data 1000fc17 f   libucrt:locale_refcounting.obj
 0001:0000ec8e       __updatetlocinfoEx_nolock  1000fc8e f   libucrt:locale_refcounting.obj
 0001:0000ecde       ___acrt_fp_strflt_to_string 1000fcde f   libucrt:_fptostr.obj
 0001:0000eda0       ?divide@__crt_strtox@@YA_KAAUbig_integer@1@ABU21@@Z 1000fda0 f i libucrt:cfout.obj
 0001:0000f250       ___acrt_fltout             10010250 f   libucrt:cfout.obj
 0001:00010bea       ___acrt_stdio_flush_and_write_narrow_nolock 10011bea f   libucrt:_flsbuf.obj
 0001:00010bf5       ___acrt_stdio_flush_and_write_wide_nolock 10011bf5 f   libucrt:_flsbuf.obj
 0001:00010c00       __fcloseall                10011c00 f   libucrt:closeall.obj
 0001:00010ca0       ___acrt_stdio_free_buffer_nolock 10011ca0 f   libucrt:_freebuf.obj
 0001:00010cde       __isatty                   10011cde f   libucrt:isatty.obj
 0001:00010d34       ___acrt_locale_free_monetary 10011d34 f   libucrt:initmon.obj
 0001:00010e32       ___acrt_locale_free_numeric 10011e32 f   libucrt:initnum.obj
 0001:00010f0d       ___acrt_locale_free_time   10011f0d f   libucrt:inittime.obj
 0001:0001103c       ___acrt_GetStringTypeA     1001203c f   libucrt:getstringtypea.obj
 0001:00011159       ___acrt_lowio_create_handle_array 10012159 f   libucrt:osfinfo.obj
 0001:000111d3       ___acrt_lowio_destroy_handle_array 100121d3 f   libucrt:osfinfo.obj
 0001:00011208       ___acrt_lowio_ensure_fh_exists 10012208 f   libucrt:osfinfo.obj
 0001:000112a0       ___acrt_lowio_lock_fh      100122a0 f   libucrt:osfinfo.obj
 0001:000112c3       ___acrt_lowio_unlock_fh    100122c3 f   libucrt:osfinfo.obj
 0001:000112e6       __free_osfhnd              100122e6 f   libucrt:osfinfo.obj
 0001:00011377       __get_osfhandle            10012377 f   libucrt:osfinfo.obj
 0001:000113e1       ??$?RV<lambda_61cee617f5178ae960314fd4d05640a0>@@AAV<lambda_6978c1fb23f02e42e1d9e99668cc68aa>@@V<lambda_9cd88cf8ad10232537feb2133f08c833>@@@?$__crt_seh_guarded_call@H@@QAEH$$QAV<lambda_61cee617f5178ae960314fd4d05640a0>@@AAV<lambda_6978c1fb23f02e42e1d9e99668cc68aa>@@$$QAV<lambda_9cd88cf8ad10232537feb2133f08c833>@@@Z 100123e1 f i libucrt:commit.obj
 0001:00011479       ??$__acrt_lowio_lock_fh_and_call@V<lambda_6978c1fb23f02e42e1d9e99668cc68aa>@@@@YAHH$$QAV<lambda_6978c1fb23f02e42e1d9e99668cc68aa>@@@Z 10012479 f i libucrt:commit.obj
 0001:000114a1       __commit                   100124a1 f   libucrt:commit.obj
 0001:00011aa0       __write                    10012aa0 f   libucrt:write.obj
 0001:00011b8b       __write_nolock             10012b8b f   libucrt:write.obj
 0001:00011da6       __msize                    10012da6 f   libucrt:msize.obj
 0001:00011dd9       __realloc_base             10012dd9 f   libucrt:realloc_base.obj
 0001:00011efe       ___acrt_DownlevelLocaleNameToLCID 10012efe f   libucrt:lcidtoname_downlevel.obj
 0001:00011f2a       ___strncnt                 10012f2a f   libucrt:strncnt.obj
 0001:00011f46       _fegetenv                  10012f46 f   libucrt:fegetenv.obj
 0001:00011f63       _fesetenv                  10012f63 f   libucrt:fesetenv.obj
 0001:00011fac       _feholdexcept              10012fac f   libucrt:feholdexcept.obj
 0001:00012000       _log10                     10013000 f   libucrt:log10.obj
 0001:00012040       __CIlog10                  10013040 f   libucrt:log10.obj
 0001:0001207b       __CIlog10_default          1001307b f   libucrt:log10.obj
 0001:0001208f       __log10_default            1001308f     libucrt:log10.obj
 0001:00012150       _ceil                      10013150 f   libucrt:ceil_pentium4.obj
 0001:00012190       __ceil_pentium4            10013190 f   libucrt:ceil_pentium4.obj
 0001:000123f0       __lseeki64                 100133f0 f   libucrt:lseek.obj
 0001:0001240b       __lseeki64_nolock          1001340b f   libucrt:lseek.obj
 0001:00012426       ___acrt_stdio_allocate_buffer_nolock 10013426 f   libucrt:_getbuf.obj
 0001:00012483       __fclose_nolock            10013483 f   libucrt:fclose.obj
 0001:000124f9       _fclose                    100134f9 f   libucrt:fclose.obj
 0001:00012579       __putwch_nolock            10013579 f   libucrt:putwch.obj
 0001:000125be       ___get_abstract_control_sse2 100135be f   libucrt:_fenvutils.obj
 0001:0001263b       ___get_abstract_control_x87 1001363b f   libucrt:_fenvutils.obj
 0001:000126ae       ___get_abstract_status_x87 100136ae f   libucrt:_fenvutils.obj
 0001:000126ae       ___get_abstract_status_sse2 100136ae f   libucrt:_fenvutils.obj
 0001:000126e7       ___get_machine_control     100136e7 f   libucrt:_fenvutils.obj
 0001:00012758       ___get_machine_control_sse2 10013758 f   libucrt:_fenvutils.obj
 0001:000127d8       ___get_machine_status      100137d8 f   libucrt:_fenvutils.obj
 0001:000127d8       ___get_machine_status_sse2 100137d8 f   libucrt:_fenvutils.obj
 0001:0001280f       __getfpcontrolword         1001380f f   libucrt:_fenvutils.obj
 0001:00012852       __getfpstatusword          10013852 f   libucrt:_fenvutils.obj
 0001:00012893       __setfpcontrolword         10013893 f   libucrt:_fenvutils.obj
 0001:00012913       __setfpstatusword          10013913 f   libucrt:_fenvutils.obj
 0001:0001298e       __clearfp                  1001398e f   libucrt:ieee87.obj
 0001:00012a6c       ___acrt_initialize_sse2    10013a6c f   libucrt:mathfcns.obj
 0001:00012a80       __CIlog10_pentium4         10013a80 f   libucrt:log10_pentium4.obj
 0001:00012a98       __log10_pentium4           10013a98     libucrt:log10_pentium4.obj
 0001:00012d21       __fFEXP                    10013d21     libucrt:87tran.obj
 0001:00012d78       __rtinfpopse               10013d78     libucrt:87tran.obj
 0001:00012d7a       __rtinfnpopse              10013d7a     libucrt:87tran.obj
 0001:00012d8a       __fFLN                     10013d8a     libucrt:87tran.obj
 0001:00012e3f       __rtinfpop                 10013e3f     libucrt:87tran.obj
 0001:00012e41       __rtinfnpop                10013e41     libucrt:87tran.obj
 0001:00012e5e       __ffexpm1                  10013e5e     libucrt:87tran.obj
 0001:00012f10       __trandisp1                10013f10 f   libucrt:87disp.obj
 0001:00012f77       __trandisp2                10013f77 f   libucrt:87disp.obj
 0001:00013003       __rttospopde               10014003     libucrt:87disp.obj
 0001:00013008       __rttospop                 10014008     libucrt:87disp.obj
 0001:0001300a       __rtnospop                 1001400a     libucrt:87disp.obj
 0001:0001300c       __rttosnpop                1001400c     libucrt:87disp.obj
 0001:0001300d       __rtnospopde               1001400d     libucrt:87disp.obj
 0001:00013014       __rtzeropop                10014014     libucrt:87disp.obj
 0001:00013016       __rtzeronpop               10014016     libucrt:87disp.obj
 0001:0001301b       __rtzerospop               1001401b     libucrt:87disp.obj
 0001:00013028       __rtonepop                 10014028     libucrt:87disp.obj
 0001:0001302a       __rtonenpop                1001402a     libucrt:87disp.obj
 0001:0001302f       __tosnan1                  1001402f     libucrt:87disp.obj
 0001:0001305a       __nosnan2                  1001405a     libucrt:87disp.obj
 0001:0001305c       __tosnan2                  1001405c     libucrt:87disp.obj
 0001:00013084       __nan2                     10014084     libucrt:87disp.obj
 0001:000130c3       __rtindfpop                100140c3     libucrt:87disp.obj
 0001:000130c5       __rtindfnpop               100140c5     libucrt:87disp.obj
 0001:000130d6       __rttosnpopde              100140d6     libucrt:87disp.obj
 0001:000130e0       __rtatan2inf               100140e0     libucrt:87disp.obj
 0001:000130fd       __rtchsifneg               100140fd     libucrt:87disp.obj
 0001:00013110       __twoToTOS                 10014110 f   libucrt:common.obj
 0001:00013125       __load_CW                  10014125 f   libucrt:common.obj
 0001:0001313c       __convertTOStoQNaN         1001413c f   libucrt:common.obj
 0001:00013155       __fload_withFB             10014155 f   libucrt:common.obj
 0001:00013198       __checkTOS_withFB          10014198 f   libucrt:common.obj
 0001:000131ae       __fast_exit                100141ae f   libucrt:common.obj
 0001:000131bb       __math_exit                100141bb f   libucrt:common.obj
 0001:000131e5       __check_overflow_exit      100141e5 f   libucrt:common.obj
 0001:000131f9       __check_range_exit         100141f9 f   libucrt:common.obj
 0001:000132a0       __startTwoArgErrorHandling 100142a0 f   libucrt:genexcep.obj
 0001:000132b7       __startOneArgErrorHandling 100142b7 f   libucrt:genexcep.obj
 0001:000132f3       ___libm_error_support      100142f3 f   libucrt:libm_error.obj
 0001:0001350b       __ceil_default             1001450b f   libucrt:ceil.obj
 0001:000135c5       ??$?RV<lambda_123407a5e2ac06da108355a851863b7a>@@AAV<lambda_2fe9b910cf3cbf4a0ab98a02ba45b3ec>@@V<lambda_ae55bdf541ad94d75914d381c370e64d>@@@?$__crt_seh_guarded_call@H@@QAEH$$QAV<lambda_123407a5e2ac06da108355a851863b7a>@@AAV<lambda_2fe9b910cf3cbf4a0ab98a02ba45b3ec>@@$$QAV<lambda_ae55bdf541ad94d75914d381c370e64d>@@@Z 100145c5 f i libucrt:close.obj
 0001:00013647       ??$__acrt_lowio_lock_fh_and_call@V<lambda_2fe9b910cf3cbf4a0ab98a02ba45b3ec>@@@@YAHH$$QAV<lambda_2fe9b910cf3cbf4a0ab98a02ba45b3ec>@@@Z 10014647 f i libucrt:close.obj
 0001:0001366f       __close                    1001466f f   libucrt:close.obj
 0001:000136ee       __close_nolock             100146ee f   libucrt:close.obj
 0001:0001378a       ?__acrt_stdio_free_stream@@YAXV__crt_stdio_stream@@@Z 1001478a f   libucrt:stream.obj
 0001:000137c5       ___dcrt_lowio_initialize_console_output 100147c5 f   libucrt:initcon.obj
 0001:000137e4       ___dcrt_terminate_console_output 100147e4 f   libucrt:initcon.obj
 0001:00013800       ___ascii_strnicmp          10014800 f   libucrt:_strnicm.obj
 0001:00013861       __clrfp                    10014861 f   libucrt:fpctrl.obj
 0001:00013874       __ctrlfp                   10014874 f   libucrt:fpctrl.obj
 0001:000138a0       __set_statfp               100148a0 f   libucrt:fpctrl.obj
 0001:000138fb       __statfp                   100148fb f   libucrt:fpctrl.obj
 0001:0001390d       __d_inttype                1001490d f   libucrt:powhlp.obj
 0001:00013977       __powhlp                   10014977 f   libucrt:powhlp.obj
 0001:00013aa2       __87except                 10014aa2 f   libucrt:87except.obj
 0001:00013bad       __frnd                     10014bad f   libucrt:frnd.obj
 0001:00013bc3       __errcode                  10014bc3 f   libucrt:fpexcept.obj
 0001:00013bf7       __except1                  10014bf7 f   libucrt:fpexcept.obj
 0001:00013cc5       __handle_exc               10014cc5 f   libucrt:fpexcept.obj
 0001:00013ea5       __raise_exc                10014ea5 f   libucrt:fpexcept.obj
 0001:00013ec8       __raise_exc_ex             10014ec8 f   libucrt:fpexcept.obj
 0001:000141b9       __set_errno_from_matherr   100151b9 f   libucrt:fpexcept.obj
 0001:000141e8       __umatherr                 100151e8 f   libucrt:fpexcept.obj
 0001:0001428a       __decomp                   1001528a f   libucrt:util.obj
 0001:0001435e       __set_exp                  1001535e f   libucrt:util.obj
 0001:0001438d       __sptype                   1001538d f   libucrt:util.obj
 0001:000143eb       __fpclass                  100153eb f   libucrt:ieeemisc.obj
 0001:00014490       _IsProcessorFeaturePresent@4 10015490 f   kernel32:KERNEL32.dll
 0001:00014496       _RtlUnwind@16              10015496 f   kernel32:KERNEL32.dll
 0001:0001449c       _SystemFunction036@8       1001549c f   advapi32:ADVAPI32.dll
 0001:000144a2       ?DloadAcquireSectionWriteAccess@@YGXXZ 100154a2 f i DelayImp:delayhlp.obj
 0001:000144d5       ?DloadGetSRWLockFunctionPointers@@YGEXZ 100154d5 f i DelayImp:delayhlp.obj
 0001:00014550       ?DloadLock@@YGXXZ          10015550 f i DelayImp:delayhlp.obj
 0001:000145ad       ?DloadMakePermanentImageCommit@@YGXPAXK@Z 100155ad f i DelayImp:delayhlp.obj
 0001:0001461f       ?DloadObtainSection@@YGPAXPAK0@Z 1001561f f i DelayImp:delayhlp.obj
 0001:000146a2       ?DloadProtectSection@@YGXKPAK@Z 100156a2 f i DelayImp:delayhlp.obj
 0001:00014712       ?DloadReleaseSectionWriteAccess@@YGXXZ 10015712 f i DelayImp:delayhlp.obj
 0001:0001474a       ?DloadUnlock@@YGXXZ        1001574a f i DelayImp:delayhlp.obj
 0001:00014794       ___delayLoadHelper2@8      10015794 f   DelayImp:delayhlp.obj
 0001:00014a20       __FindPESection            10015a20 f   LIBCMT:pesect.obj
 0001:00014a70       __IsNonwritableInCurrentImage 10015a70 f   LIBCMT:pesect.obj
 0001:00014b30       __ValidateImageBase        10015b30 f   LIBCMT:pesect.obj
 0001:00014b70       __aulldvrm                 10015b70 f   LIBCMT:ulldvrm.obj
 0001:00014c10       __allmul                   10015c10 f   LIBCMT:llmul.obj
 0001:00014c50       __SEH_prolog4_GS           10015c50 f   LIBCMT:_sehprolg4gs_.obj
 0001:00014c99       __SEH_epilog4_GS           10015c99 f   LIBCMT:_sehprolg4gs_.obj
 0001:00014cb0       __alldvrm                  10015cb0 f   LIBCMT:lldvrm.obj
 0001:00014d90       __aullshr                  10015d90 f   LIBCMT:ullshr.obj
 0001:00014db0       __alloca_probe_16          10015db0 f   LIBCMT:alloca16.obj
 0001:00014dc6       __alloca_probe_8           10015dc6     LIBCMT:alloca16.obj
 0001:00014de0       __allshl                   10015de0 f   LIBCMT:llshl.obj
 0001:00014e00       __ftol2_sse                10015e00 f   LIBCMT:_ftol2_.obj
 0001:00014e09       __ftol2_pentium4           10015e09 f   LIBCMT:_ftol2_.obj
 0001:00014e1c       __ftol2_sse_excpt          10015e1c f   LIBCMT:_ftol2_.obj
 0001:00014e40       __ftol2                    10015e40 f   LIBCMT:_ftol2_.obj
 0001:00014ec0       __chkstk                   10015ec0 f   LIBCMT:chkstk.obj
 0001:00014ec0       __alloca_probe             10015ec0 f   LIBCMT:chkstk.obj
 0001:00014ef0       _memcpy                    10015ef0 f   libvcruntime:memcpy.obj
 0001:00015470       _memmove                   10016470 f   libvcruntime:memmove.obj
 0001:000159f0       _strrchr                   100169f0 f   libvcruntime:strrchr.obj
 0001:00015b30       _strchr                    10016b30 f   libvcruntime:strchr.obj
 0001:00015b9e       ___from_strstr_to_strchr   10016b9e     libvcruntime:strchr.obj
 0001:00015c60       __ftoui3                   10016c60 f   LIBCMT:_ftol3_.obj
 0001:00015c6f       __ftoul3                   10016c6f f   LIBCMT:_ftol3_.obj
 0001:00015c7e       __ftol3                    10016c7e f   LIBCMT:_ftol3_.obj
 0001:00015c8b       __ftol3_NaN                10016c8b f   LIBCMT:_ftol3_.obj
 0001:00015ca3       __ftol3_work               10016ca3 f   LIBCMT:_ftol3_.obj
 0001:00015d29       __ftol3_common             10016d29 f   LIBCMT:_ftol3_.obj
 0001:00015deb       __ftol3_arg_error          10016deb f   LIBCMT:_ftol3_.obj
 0001:00015dfd       __ftol3_except             10016dfd f   LIBCMT:_ftol3_.obj
 0001:00015e41       __dtoui3                   10016e41 f   LIBCMT:_ftol3_.obj
 0001:00015e50       __dtoul3                   10016e50 f   LIBCMT:_ftol3_.obj
 0001:00015e5f       __dtol3                    10016e5f f   LIBCMT:_ftol3_.obj
 0001:00015e6c       __dtol3_NaN                10016e6c f   LIBCMT:_ftol3_.obj
 0001:00015e89       __dtol3_work               10016e89 f   LIBCMT:_ftol3_.obj
 0001:00015f6e       __ultod3                   10016f6e f   LIBCMT:_ftol3_.obj
 0001:00015fff       __ltod3                    10016fff f   LIBCMT:_ftol3_.obj
 0002:00000000       __imp__SystemFunction036@8 10018000     advapi32:ADVAPI32.dll
 0002:00000004       \177ADVAPI32_NULL_THUNK_DATA 10018004     advapi32:ADVAPI32.dll
 0002:00000008       __imp__UnhandledExceptionFilter@4 10018008     kernel32:KERNEL32.dll
 0002:0000000c       __imp__SetUnhandledExceptionFilter@4 1001800c     kernel32:KERNEL32.dll
 0002:00000010       __imp__GetCurrentProcess@0 10018010     kernel32:KERNEL32.dll
 0002:00000014       __imp__TerminateProcess@8  10018014     kernel32:KERNEL32.dll
 0002:00000018       __imp__IsProcessorFeaturePresent@4 10018018     kernel32:KERNEL32.dll
 0002:0000001c       __imp__QueryPerformanceCounter@4 1001801c     kernel32:KERNEL32.dll
 0002:00000020       __imp__GetCurrentProcessId@0 10018020     kernel32:KERNEL32.dll
 0002:00000024       __imp__GetCurrentThreadId@0 10018024     kernel32:KERNEL32.dll
 0002:00000028       __imp__GetSystemTimeAsFileTime@4 10018028     kernel32:KERNEL32.dll
 0002:0000002c       __imp__InitializeSListHead@4 1001802c     kernel32:KERNEL32.dll
 0002:00000030       __imp__IsDebuggerPresent@0 10018030     kernel32:KERNEL32.dll
 0002:00000034       __imp__GetStartupInfoW@4   10018034     kernel32:KERNEL32.dll
 0002:00000038       __imp__GetModuleHandleW@4  10018038     kernel32:KERNEL32.dll
 0002:0000003c       __imp__GetLastError@0      1001803c     kernel32:KERNEL32.dll
 0002:00000040       __imp__GetModuleFileNameW@12 10018040     kernel32:KERNEL32.dll
 0002:00000044       __imp__RaiseException@16   10018044     kernel32:KERNEL32.dll
 0002:00000048       __imp__InterlockedFlushSList@4 10018048     kernel32:KERNEL32.dll
 0002:0000004c       __imp__InitializeCriticalSectionAndSpinCount@8 1001804c     kernel32:KERNEL32.dll
 0002:00000050       __imp__TlsAlloc@0          10018050     kernel32:KERNEL32.dll
 0002:00000054       __imp__TlsGetValue@4       10018054     kernel32:KERNEL32.dll
 0002:00000058       __imp__TlsSetValue@8       10018058     kernel32:KERNEL32.dll
 0002:0000005c       __imp__TlsFree@4           1001805c     kernel32:KERNEL32.dll
 0002:00000060       __imp__FreeLibrary@4       10018060     kernel32:KERNEL32.dll
 0002:00000064       __imp__GetProcAddress@8    10018064     kernel32:KERNEL32.dll
 0002:00000068       __imp__LoadLibraryExW@12   10018068     kernel32:KERNEL32.dll
 0002:0000006c       __imp__RtlUnwind@16        1001806c     kernel32:KERNEL32.dll
 0002:00000070       __imp__SetLastError@4      10018070     kernel32:KERNEL32.dll
 0002:00000074       __imp__EnterCriticalSection@4 10018074     kernel32:KERNEL32.dll
 0002:00000078       __imp__LeaveCriticalSection@4 10018078     kernel32:KERNEL32.dll
 0002:0000007c       __imp__DeleteCriticalSection@4 1001807c     kernel32:KERNEL32.dll
 0002:00000080       __imp__GetStdHandle@4      10018080     kernel32:KERNEL32.dll
 0002:00000084       __imp__GetFileType@4       10018084     kernel32:KERNEL32.dll
 0002:00000088       __imp__GetModuleHandleExW@12 10018088     kernel32:KERNEL32.dll
 0002:0000008c       __imp__WriteConsoleW@20    1001808c     kernel32:KERNEL32.dll
 0002:00000090       __imp__ExitProcess@4       10018090     kernel32:KERNEL32.dll
 0002:00000094       __imp__MultiByteToWideChar@24 10018094     kernel32:KERNEL32.dll
 0002:00000098       __imp__WideCharToMultiByte@32 10018098     kernel32:KERNEL32.dll
 0002:0000009c       __imp__HeapAlloc@12        1001809c     kernel32:KERNEL32.dll
 0002:000000a0       __imp__GetACP@0            100180a0     kernel32:KERNEL32.dll
 0002:000000a4       __imp__GetStringTypeW@16   100180a4     kernel32:KERNEL32.dll
 0002:000000a8       __imp__WriteFile@20        100180a8     kernel32:KERNEL32.dll
 0002:000000ac       __imp__OutputDebugStringW@4 100180ac     kernel32:KERNEL32.dll
 0002:000000b0       __imp__CloseHandle@4       100180b0     kernel32:KERNEL32.dll
 0002:000000b4       __imp__WaitForSingleObjectEx@12 100180b4     kernel32:KERNEL32.dll
 0002:000000b8       __imp__CreateThread@24     100180b8     kernel32:KERNEL32.dll
 0002:000000bc       __imp__IsValidCodePage@4   100180bc     kernel32:KERNEL32.dll
 0002:000000c0       __imp__GetOEMCP@0          100180c0     kernel32:KERNEL32.dll
 0002:000000c4       __imp__GetCPInfo@8         100180c4     kernel32:KERNEL32.dll
 0002:000000c8       __imp__GetEnvironmentStringsW@0 100180c8     kernel32:KERNEL32.dll
 0002:000000cc       __imp__FreeEnvironmentStringsW@4 100180cc     kernel32:KERNEL32.dll
 0002:000000d0       __imp__LCMapStringW@24     100180d0     kernel32:KERNEL32.dll
 0002:000000d4       __imp__GetProcessHeap@0    100180d4     kernel32:KERNEL32.dll
 0002:000000d8       __imp__GetCommandLineA@0   100180d8     kernel32:KERNEL32.dll
 0002:000000dc       __imp__GetCommandLineW@0   100180dc     kernel32:KERNEL32.dll
 0002:000000e0       __imp__SetStdHandle@8      100180e0     kernel32:KERNEL32.dll
 0002:000000e4       __imp__FlushFileBuffers@4  100180e4     kernel32:KERNEL32.dll
 0002:000000e8       __imp__GetConsoleCP@0      100180e8     kernel32:KERNEL32.dll
 0002:000000ec       __imp__GetConsoleMode@8    100180ec     kernel32:KERNEL32.dll
 0002:000000f0       __imp__HeapSize@12         100180f0     kernel32:KERNEL32.dll
 0002:000000f4       __imp__HeapReAlloc@16      100180f4     kernel32:KERNEL32.dll
 0002:000000f8       __imp__SetFilePointerEx@20 100180f8     kernel32:KERNEL32.dll
 0002:000000fc       __imp__DecodePointer@4     100180fc     kernel32:KERNEL32.dll
 0002:00000100       __imp__CreateFileW@28      10018100     kernel32:KERNEL32.dll
 0002:00000104       __imp__HeapFree@12         10018104     kernel32:KERNEL32.dll
 0002:00000108       __imp__GetModuleHandleA@4  10018108     kernel32:KERNEL32.dll
 0002:0000010c       __imp__GetSystemInfo@4     1001810c     kernel32:KERNEL32.dll
 0002:00000110       __imp__VirtualProtect@16   10018110     kernel32:KERNEL32.dll
 0002:00000114       __imp__VirtualQuery@12     10018114     kernel32:KERNEL32.dll
 0002:00000118       __imp__LoadLibraryExA@12   10018118     kernel32:KERNEL32.dll
 0002:0000011c       \177KERNEL32_NULL_THUNK_DATA 1001811c     kernel32:KERNEL32.dll
 0002:00000120       ___guard_check_icall_fptr  10018120     LIBCMT:guard_support.obj
 0002:00000124       ___xc_a                    10018124     LIBCMT:initializers.obj
 0002:00000128       __register_binding_        10018128     binding.obj
 0002:0000012c       ___xc_z                    1001812c     LIBCMT:initializers.obj
 0002:00000130       ___xi_a                    10018130     LIBCMT:initializers.obj
 0002:00000134       ___acrt_stdio_initializer  10018134     libucrt:stdio_initializer.obj
 0002:00000138       ___acrt_multibyte_initializer 10018138     libucrt:multibyte_initializer.obj
 0002:0000013c       ___acrt_tran_sse2_initializer 1001813c     libucrt:sse2_initializer.obj
 0002:00000140       ___xi_z                    10018140     LIBCMT:initializers.obj
 0002:00000144       ___xp_a                    10018144     LIBCMT:initializers.obj
 0002:00000148       ___acrt_locale_terminator  10018148     libucrt:locale_initializer.obj
 0002:0000014c       ___dcrt_console_output_terminator 1001814c     libucrt:console_output_initializer.obj
 0002:00000150       ___acrt_stdio_terminator   10018150     libucrt:stdio_initializer.obj
 0002:00000154       ___xp_z                    10018154     LIBCMT:initializers.obj
 0002:00000158       ___xt_a                    10018158     LIBCMT:initializers.obj
 0002:0000015c       ___xt_z                    1001815c     LIBCMT:initializers.obj
 0002:00000160       __sz_node_exe              10018160     node:node.exe
 0002:0000016c       __pRawDllMain              1001816c     LIBCMT:dll_dllmain.obj
 0002:0000016c       __pDefaultRawDllMain       1001816c     LIBCMT:dll_dllmain.obj
 0002:0000017c       ??_7exception@std@@6B@     1001817c     LIBCMT:throw_bad_alloc.obj
 0002:00000184       ??_C@_0BC@EOODALEL@Unknown?5exception?$AA@ 10018184     LIBCMT:throw_bad_alloc.obj
 0002:0000019c       ??_7bad_alloc@std@@6B@     1001819c     LIBCMT:throw_bad_alloc.obj
 0002:000001a4       ??_C@_0P@GHFPNOJB@bad?5allocation?$AA@ 100181a4     LIBCMT:throw_bad_alloc.obj
 0002:000001b8       ??_7bad_array_new_length@std@@6B@ 100181b8     LIBCMT:throw_bad_alloc.obj
 0002:000001c0       ??_C@_0BF@KINCDENJ@bad?5array?5new?5length?$AA@ 100181c0     LIBCMT:throw_bad_alloc.obj
 0002:000001dc       ??_7type_info@@6B@         100181dc     LIBCMT:std_type_info_static.obj
 0002:000001e0       __Microsoft_CRTProvider    100181e0     libvcruntime:telemetry.obj
 0002:000001e4       ??_C@_00CNPNBAHC@?$AA@     100181e4     libvcruntime:telemetry.obj
 0002:000001e8       ??_C@_11LOCGONAA@?$AA?$AA@ 100181e8     libvcruntime:telemetry.obj
 0002:000001ec       ??_C@_0O@JEOPJOMI@Main?5Invoked?4?$AA@ 100181ec     libvcruntime:telemetry.obj
 0002:000001fc       ??_C@_0P@NEAEIBDO@Main?5Returned?4?$AA@ 100181fc     libvcruntime:telemetry.obj
 0002:0000023c       ??_C@_1BC@DNHGCMLG@?$AAa?$AAd?$AAv?$AAa?$AAp?$AAi?$AA3?$AA2?$AA?$AA@ 1001823c     libvcruntime:winapi_downlevel.obj
 0002:00000250       ??_C@_1DM@KHCHBNEB@?$AAa?$AAp?$AAi?$AA?9?$AAm?$AAs?$AA?9?$AAw?$AAi?$AAn?$AA?9?$AAc?$AAo?$AAr?$AAe?$AA?9?$AAf?$AAi?$AAb?$AAe?$AAr?$AAs?$AA?9?$AAl?$AA1?$AA?9?$AA1?$AA?9?$AA1?$AA?$AA@ 10018250     libvcruntime:winapi_downlevel.obj
 0002:0000028c       ??_C@_1DK@LPPGFMPP@?$AAa?$AAp?$AAi?$AA?9?$AAm?$AAs?$AA?9?$AAw?$AAi?$AAn?$AA?9?$AAc?$AAo?$AAr?$AAe?$AA?9?$AAs?$AAy?$AAn?$AAc?$AAh?$AA?9?$AAl?$AA1?$AA?9?$AA2?$AA?9?$AA0?$AA?$AA@ 1001828c     libvcruntime:winapi_downlevel.obj
 0002:000002c8       ??_C@_1BC@GDMECMAK@?$AAk?$AAe?$AAr?$AAn?$AAe?$AAl?$AA3?$AA2?$AA?$AA@ 100182c8     libvcruntime:winapi_downlevel.obj
 0002:000002e0       ??_C@_0O@BAMBGLIE@EventRegister?$AA@ 100182e0     libvcruntime:winapi_downlevel.obj
 0002:000002f4       ??_C@_0BE@BJEEGHGK@EventSetInformation?$AA@ 100182f4     libvcruntime:winapi_downlevel.obj
 0002:0000030c       ??_C@_0BA@FAKLIPIC@EventUnregister?$AA@ 1001830c     libvcruntime:winapi_downlevel.obj
 0002:00000320       ??_C@_0BD@PKLHJPHD@EventWriteTransfer?$AA@ 10018320     libvcruntime:winapi_downlevel.obj
 0002:0000033c       ??_C@_08KNHFBNJ@FlsAlloc?$AA@ 1001833c     libvcruntime:winapi_downlevel.obj
 0002:00000350       ??_C@_07PEJMOBNF@FlsFree?$AA@ 10018350     libvcruntime:winapi_downlevel.obj
 0002:00000360       ??_C@_0M@GDNOONDI@FlsGetValue?$AA@ 10018360     libvcruntime:winapi_downlevel.obj
 0002:00000374       ??_C@_0M@JCPCPOEF@FlsSetValue?$AA@ 10018374     libvcruntime:winapi_downlevel.obj
 0002:00000388       ??_C@_0BM@HCFOFFN@InitializeCriticalSectionEx?$AA@ 10018388     libvcruntime:winapi_downlevel.obj
 0002:00000538       ??_C@_08EHJDFFNH@__based?$CI?$AA@ 10018538     libvcruntime:undname.obj
 0002:00000544       ??_C@_07KOLFKCDI@__cdecl?$AA@ 10018544     libvcruntime:undname.obj
 0002:0000054c       ??_C@_08GHMPAG@__pascal?$AA@ 1001854c     libvcruntime:undname.obj
 0002:00000558       ??_C@_09IFJBGAPI@__stdcall?$AA@ 10018558     libvcruntime:undname.obj
 0002:00000564       ??_C@_0L@NPHFGOKO@__thiscall?$AA@ 10018564     libvcruntime:undname.obj
 0002:00000570       ??_C@_0L@JMKHOMEK@__fastcall?$AA@ 10018570     libvcruntime:undname.obj
 0002:0000057c       ??_C@_0N@BCKKPABJ@__vectorcall?$AA@ 1001857c     libvcruntime:undname.obj
 0002:0000058c       ??_C@_09HIJEGCPM@__clrcall?$AA@ 1001858c     libvcruntime:undname.obj
 0002:00000598       ??_C@_06GHPCKEAG@__eabi?$AA@ 10018598     libvcruntime:undname.obj
 0002:000005a0       ??_C@_07JOMMBBKO@__ptr64?$AA@ 100185a0     libvcruntime:undname.obj
 0002:000005a8       ??_C@_0L@PILCLIHE@__restrict?$AA@ 100185a8     libvcruntime:undname.obj
 0002:000005b4       ??_C@_0M@GFIIJFMG@__unaligned?$AA@ 100185b4     libvcruntime:undname.obj
 0002:000005c0       ??_C@_09DHDLOLLB@restrict?$CI?$AA@ 100185c0     libvcruntime:undname.obj
 0002:000005cc       ??_C@_04NIHEBCM@?5new?$AA@ 100185cc     libvcruntime:undname.obj
 0002:000005d4       ??_C@_07FPCDHGMM@?5delete?$AA@ 100185d4     libvcruntime:undname.obj
 0002:000005dc       ??_C@_01NEMOKFLO@?$DN?$AA@ 100185dc     libvcruntime:undname.obj
 0002:000005e0       ??_C@_02GPIOPFAK@?$DO?$DO?$AA@ 100185e0     libvcruntime:undname.obj
 0002:000005e4       ??_C@_02FODMEDOG@?$DM?$DM?$AA@ 100185e4     libvcruntime:undname.obj
 0002:000005e8       ??_C@_01DCLJPIOD@?$CB?$AA@ 100185e8     libvcruntime:undname.obj
 0002:000005ec       ??_C@_02EGOFBIJA@?$DN?$DN?$AA@ 100185ec     libvcruntime:undname.obj
 0002:000005f0       ??_C@_02FDNJECIE@?$CB?$DN?$AA@ 100185f0     libvcruntime:undname.obj
 0002:000005f4       ??_C@_02GPECMEKF@?$FL?$FN?$AA@ 100185f4     libvcruntime:undname.obj
 0002:000005f8       ??_C@_08LHJFAFGD@operator?$AA@ 100185f8     libvcruntime:undname.obj
 0002:00000604       ??_C@_02HBOOOICD@?9?$DO?$AA@ 10018604     libvcruntime:undname.obj
 0002:00000608       ??_C@_01NBENCBCI@?$CK?$AA@ 10018608     libvcruntime:undname.obj
 0002:0000060c       ??_C@_02ECNGHCIF@?$CL?$CL?$AA@ 1001860c     libvcruntime:undname.obj
 0002:00000610       ??_C@_02BAABKJLB@?9?9?$AA@ 10018610     libvcruntime:undname.obj
 0002:00000614       ??_C@_01JOAMLHOP@?9?$AA@   10018614     libvcruntime:undname.obj
 0002:00000618       ??_C@_01MIFGBAGJ@?$CL?$AA@ 10018618     libvcruntime:undname.obj
 0002:0000061c       ??_C@_01HNPIGOCE@?$CG?$AA@ 1001861c     libvcruntime:undname.obj
 0002:00000620       ??_C@_03MNHNFDLC@?9?$DO?$CK?$AA@ 10018620     libvcruntime:undname.obj
 0002:00000624       ??_C@_01KMDKNFGN@?1?$AA@   10018624     libvcruntime:undname.obj
 0002:00000628       ??_C@_01FGNFDNOH@?$CF?$AA@ 10018628     libvcruntime:undname.obj
 0002:0000062c       ??_C@_01MNNFJEPP@?$DM?$AA@ 1001862c     libvcruntime:undname.obj
 0002:00000630       ??_C@_02EHCHHCKH@?$DM?$DN?$AA@ 10018630     libvcruntime:undname.obj
 0002:00000634       ??_C@_01PPODPGHN@?$DO?$AA@ 10018634     libvcruntime:undname.obj
 0002:00000638       ??_C@_02EEKDKGMJ@?$DO?$DN?$AA@ 10018638     libvcruntime:undname.obj
 0002:0000063c       ??_C@_01IHBHIGKO@?0?$AA@   1001863c     libvcruntime:undname.obj
 0002:00000640       ??_C@_02HCKGKOFO@?$CI?$CJ?$AA@ 10018640     libvcruntime:undname.obj
 0002:00000644       ??_C@_01PJKLJHI@?$HO?$AA@  10018644     libvcruntime:undname.obj
 0002:00000648       ??_C@_01JKBOJNNK@?$FO?$AA@ 10018648     libvcruntime:undname.obj
 0002:0000064c       ??_C@_01DNKMNLPK@?$HM?$AA@ 1001864c     libvcruntime:undname.obj
 0002:00000650       ??_C@_02PPKAJPJL@?$CG?$CG?$AA@ 10018650     libvcruntime:undname.obj
 0002:00000654       ??_C@_02NONPIBCD@?$HM?$HM?$AA@ 10018654     libvcruntime:undname.obj
 0002:00000658       ??_C@_02FPIMKNGF@?$CK?$DN?$AA@ 10018658     libvcruntime:undname.obj
 0002:0000065c       ??_C@_02FOEOMHFC@?$CL?$DN?$AA@ 1001865c     libvcruntime:undname.obj
 0002:00000660       ??_C@_02FKMDLLOA@?9?$DN?$AA@ 10018660     libvcruntime:undname.obj
 0002:00000664       ??_C@_02FJEHGPIO@?1?$DN?$AA@ 10018664     libvcruntime:undname.obj
 0002:00000668       ??_C@_02FENAOKFI@?$CF?$DN?$AA@ 10018668     libvcruntime:undname.obj
 0002:0000066c       ??_C@_03IKFCCPFF@?$DO?$DO?$DN?$AA@ 1001866c     libvcruntime:undname.obj
 0002:00000670       ??_C@_03CDNPDDLA@?$DM?$DM?$DN?$AA@ 10018670     libvcruntime:undname.obj
 0002:00000674       ??_C@_02FGJGFEAB@?$CG?$DN?$AA@ 10018674     libvcruntime:undname.obj
 0002:00000678       ??_C@_02DHLNPPGH@?$HM?$DN?$AA@ 10018678     libvcruntime:undname.obj
 0002:0000067c       ??_C@_02MHEGNOJ@?$FO?$DN?$AA@ 1001867c     libvcruntime:undname.obj
 0002:00000680       ??_C@_09IFPLHPGF@?$GAvftable?8?$AA@ 10018680     libvcruntime:undname.obj
 0002:0000068c       ??_C@_09BLBHBJP@?$GAvbtable?8?$AA@ 1001868c     libvcruntime:undname.obj
 0002:00000698       ??_C@_07FEEIOKP@?$GAvcall?8?$AA@ 10018698     libvcruntime:undname.obj
 0002:000006a0       ??_C@_08LLFFHHDJ@?$GAtypeof?8?$AA@ 100186a0     libvcruntime:undname.obj
 0002:000006ac       ??_C@_0BF@KDPPACIK@?$GAlocal?5static?5guard?8?$AA@ 100186ac     libvcruntime:undname.obj
 0002:000006c4       ??_C@_08OBABFOLI@?$GAstring?8?$AA@ 100186c4     libvcruntime:undname.obj
 0002:000006d0       ??_C@_0BD@JDLKDPAB@?$GAvbase?5destructor?8?$AA@ 100186d0     libvcruntime:undname.obj
 0002:000006e4       ??_C@_0BN@DEGPLNFK@?$GAvector?5deleting?5destructor?8?$AA@ 100186e4     libvcruntime:undname.obj
 0002:00000704       ??_C@_0BO@OBMKPJIG@?$GAdefault?5constructor?5closure?8?$AA@ 10018704     libvcruntime:undname.obj
 0002:00000724       ??_C@_0BN@IMDCHIKM@?$GAscalar?5deleting?5destructor?8?$AA@ 10018724     libvcruntime:undname.obj
 0002:00000744       ??_C@_0BO@PFGOCPJJ@?$GAvector?5constructor?5iterator?8?$AA@ 10018744     libvcruntime:undname.obj
 0002:00000764       ??_C@_0BN@LFPFMEDL@?$GAvector?5destructor?5iterator?8?$AA@ 10018764     libvcruntime:undname.obj
 0002:00000784       ??_C@_0CE@IKBNEHA@?$GAvector?5vbase?5constructor?5iterat@ 10018784     libvcruntime:undname.obj
 0002:000007a8       ??_C@_0BL@NILFHHPC@?$GAvirtual?5displacement?5map?8?$AA@ 100187a8     libvcruntime:undname.obj
 0002:000007c4       ??_C@_0CB@JONCMFFK@?$GAeh?5vector?5constructor?5iterator?8@ 100187c4     libvcruntime:undname.obj
 0002:000007e8       ??_C@_0CA@GCEOPDGL@?$GAeh?5vector?5destructor?5iterator?8?$AA@ 100187e8     libvcruntime:undname.obj
 0002:00000808       ??_C@_0CH@OOJPLCPH@?$GAeh?5vector?5vbase?5constructor?5ite@ 10018808     libvcruntime:undname.obj
 0002:00000830       ??_C@_0BL@LLKPOHJI@?$GAcopy?5constructor?5closure?8?$AA@ 10018830     libvcruntime:undname.obj
 0002:0000084c       ??_C@_0BA@KBCDOMBN@?$GAudt?5returning?8?$AA@ 1001884c     libvcruntime:undname.obj
 0002:0000085c       ??_C@_03KLGMFNMG@?$GAEH?$AA@ 1001885c     libvcruntime:undname.obj
 0002:00000860       ??_C@_05KHLCHHI@?$GARTTI?$AA@ 10018860     libvcruntime:undname.obj
 0002:00000868       ??_C@_0BA@KKLDJDLB@?$GAlocal?5vftable?8?$AA@ 10018868     libvcruntime:undname.obj
 0002:00000878       ??_C@_0CE@IIHCMGGL@?$GAlocal?5vftable?5constructor?5closu@ 10018878     libvcruntime:undname.obj
 0002:0000089c       ??_C@_06FHBGPFGH@?5new?$FL?$FN?$AA@ 1001889c     libvcruntime:undname.obj
 0002:000008a4       ??_C@_09LBNFPBCA@?5delete?$FL?$FN?$AA@ 100188a4     libvcruntime:undname.obj
 0002:000008b0       ??_C@_0P@HJKNJFNN@?$GAomni?5callsig?8?$AA@ 100188b0     libvcruntime:undname.obj
 0002:000008c0       ??_C@_0BL@CNOONJFP@?$GAplacement?5delete?5closure?8?$AA@ 100188c0     libvcruntime:undname.obj
 0002:000008dc       ??_C@_0BN@CKNJLHMB@?$GAplacement?5delete?$FL?$FN?5closure?8?$AA@ 100188dc     libvcruntime:undname.obj
 0002:000008fc       ??_C@_0CG@CFDHKGGD@?$GAmanaged?5vector?5constructor?5iter@ 100188fc     libvcruntime:undname.obj
 0002:00000924       ??_C@_0CF@IMGKMJNO@?$GAmanaged?5vector?5destructor?5itera@ 10018924     libvcruntime:undname.obj
 0002:0000094c       ??_C@_0CG@HLDDJMAG@?$GAeh?5vector?5copy?5constructor?5iter@ 1001894c     libvcruntime:undname.obj
 0002:00000974       ??_C@_0CM@FCBBDIGB@?$GAeh?5vector?5vbase?5copy?5constructo@ 10018974     libvcruntime:undname.obj
 0002:000009a0       ??_C@_0BL@CLIPGLGB@?$GAdynamic?5initializer?5for?5?8?$AA@ 100189a0     libvcruntime:undname.obj
 0002:000009bc       ??_C@_0CB@PDBIFEP@?$GAdynamic?5atexit?5destructor?5for?5?8@ 100189bc     libvcruntime:undname.obj
 0002:000009e0       ??_C@_0CD@CGAJBKEJ@?$GAvector?5copy?5constructor?5iterato@ 100189e0     libvcruntime:undname.obj
 0002:00000a04       ??_C@_0CJ@GJELGAMM@?$GAvector?5vbase?5copy?5constructor?5i@ 10018a04     libvcruntime:undname.obj
 0002:00000a30       ??_C@_0CL@FGIJHLCE@?$GAmanaged?5vector?5copy?5constructor@ 10018a30     libvcruntime:undname.obj
 0002:00000a5c       ??_C@_0BM@PMGGMLDN@?$GAlocal?5static?5thread?5guard?8?$AA@ 10018a5c     libvcruntime:undname.obj
 0002:00000a78       ??_C@_0N@BDNMDMOL@operator?5?$CC?$CC?5?$AA@ 10018a78     libvcruntime:undname.obj
 0002:00000a88       ??_C@_0BC@DAFEJGAK@?5Type?5Descriptor?8?$AA@ 10018a88     libvcruntime:undname.obj
 0002:00000a9c       ??_C@_0BM@LDKODKLH@?5Base?5Class?5Descriptor?5at?5?$CI?$AA@ 10018a9c     libvcruntime:undname.obj
 0002:00000ab8       ??_C@_0BD@LGICGFMM@?5Base?5Class?5Array?8?$AA@ 10018ab8     libvcruntime:undname.obj
 0002:00000acc       ??_C@_0BN@MECKDCOJ@?5Class?5Hierarchy?5Descriptor?8?$AA@ 10018acc     libvcruntime:undname.obj
 0002:00000aec       ??_C@_0BK@CFCOFLF@?5Complete?5Object?5Locator?8?$AA@ 10018aec     libvcruntime:undname.obj
 0002:00000b08       _standard_lookup_table     10018b08     libucrt:output.obj
 0002:00000b68       _format_validation_lookup_table 10018b68     libucrt:output.obj
 0002:00000bc4       ??_C@_06OJHGLDPL@?$CInull?$CJ?$AA@ 10018bc4     libucrt:output.obj
 0002:00000bcc       ??_C@_1O@CEDCILHN@?$AA?$CI?$AAn?$AAu?$AAl?$AAl?$AA?$CJ?$AA?$AA@ 10018bcc     libucrt:output.obj
 0002:00000be0       ??_C@_1EK@MBDPDCGA@?$AAM?$AAi?$AAc?$AAr?$AAo?$AAs?$AAo?$AAf?$AAt?$AA?5?$AAV?$AAi?$AAs?$AAu?$AAa?$AAl?$AA?5?$AAC?$AA?$CL?$AA?$CL?$AA?5?$AAR?$AAu?$AAn?$AAt?$AAi?$AAm?$AAe?$AA?5?$AAL?$AAi?$AAb@ 10018be0     libucrt:assert.obj
 0002:00000c30       ??_C@_1FE@LHBLIKM@?$AAA?$AAs?$AAs?$AAe?$AAr?$AAt?$AAi?$AAo?$AAn?$AA?5?$AAf?$AAa?$AAi?$AAl?$AAe?$AAd?$AA?3?$AA?5?$AA?$CF?$AAT?$AAs?$AA?0?$AA?5?$AAf?$AAi?$AAl?$AAe?$AA?5?$AA?$CF?$AAT?$AAs?$AA?0@ 10018c30     libucrt:assert.obj
 0002:00000c84       ??_C@_1CE@OJBNHDMO@?$AAA?$AAs?$AAs?$AAe?$AAr?$AAt?$AAi?$AAo?$AAn?$AA?5?$AAf?$AAa?$AAi?$AAl?$AAe?$AAd?$AA?$CB?$AA?$AA@ 10018c84     libucrt:assert.obj
 0002:00000ca8       ??_C@_1BE@PHKBBGE@?$AAP?$AAr?$AAo?$AAg?$AAr?$AAa?$AAm?$AA?3?$AA?5?$AA?$AA@ 10018ca8     libucrt:assert.obj
 0002:00000cbc       ??_C@_1O@HEMHKNDC@?$AAF?$AAi?$AAl?$AAe?$AA?3?$AA?5?$AA?$AA@ 10018cbc     libucrt:assert.obj
 0002:00000ccc       ??_C@_1O@KCAFKHJE@?$AAL?$AAi?$AAn?$AAe?$AA?3?$AA?5?$AA?$AA@ 10018ccc     libucrt:assert.obj
 0002:00000cdc       ??_C@_1BK@PEDCIPMA@?$AAE?$AAx?$AAp?$AAr?$AAe?$AAs?$AAs?$AAi?$AAo?$AAn?$AA?3?$AA?5?$AA?$AA@ 10018cdc     libucrt:assert.obj
 0002:00000cf8       ??_C@_1OA@EGMLFBHJ@?$AAF?$AAo?$AAr?$AA?5?$AAi?$AAn?$AAf?$AAo?$AAr?$AAm?$AAa?$AAt?$AAi?$AAo?$AAn?$AA?5?$AAo?$AAn?$AA?5?$AAh?$AAo?$AAw?$AA?5?$AAy?$AAo?$AAu?$AAr?$AA?5?$AAp?$AAr?$AAo?$AAg@ 10018cf8     libucrt:assert.obj
 0002:00000dd8       ??_C@_1HK@POCJMFGK@?$AA?$CI?$AAP?$AAr?$AAe?$AAs?$AAs?$AA?5?$AAR?$AAe?$AAt?$AAr?$AAy?$AA?5?$AAt?$AAo?$AA?5?$AAd?$AAe?$AAb?$AAu?$AAg?$AA?5?$AAt?$AAh?$AAe?$AA?5?$AAa?$AAp?$AAp?$AAl?$AAi?$AAc@ 10018dd8     libucrt:assert.obj
 0002:00000e54       ??_C@_17LGKOMLJ@?$AA?4?$AA?4?$AA?4?$AA?$AA@ 10018e54     libucrt:assert.obj
 0002:00000e5c       ??_C@_13LBAGMAIH@?$AA?6?$AA?$AA@ 10018e5c     libucrt:assert.obj
 0002:00000e60       ??_C@_15IABLJNFO@?$AA?6?$AA?6?$AA?$AA@ 10018e60     libucrt:assert.obj
 0002:00000e68       ??_C@_1CO@EAEJAADC@?$AA?$DM?$AAp?$AAr?$AAo?$AAg?$AAr?$AAa?$AAm?$AA?5?$AAn?$AAa?$AAm?$AAe?$AA?5?$AAu?$AAn?$AAk?$AAn?$AAo?$AAw?$AAn?$AA?$DO?$AA?$AA@ 10018e68     libucrt:assert.obj
 0002:00000e98       ___acrt_exception_action_table 10018e98     libucrt:exception_filter.obj
 0002:00000f28       ___acrt_signal_action_table_count 10018f28     libucrt:exception_filter.obj
 0002:00000f2c       ___acrt_signal_action_first_fpe_index 10018f2c     libucrt:exception_filter.obj
 0002:00000f30       ___acrt_signal_action_fpe_count 10018f30     libucrt:exception_filter.obj
 0002:00000f34       ??_C@_1BI@BGOHAHKC@?$AAm?$AAs?$AAc?$AAo?$AAr?$AAe?$AAe?$AA?4?$AAd?$AAl?$AAl?$AA?$AA@ 10018f34     libucrt:exit.obj
 0002:00000f4c       ??_C@_0P@MIGLKIOC@CorExitProcess?$AA@ 10018f4c     libucrt:exit.obj
 0002:00000fd8       ??_C@_03OEIAHPBN@INF?$AA@  10018fd8     libucrt:cvt.obj
 0002:00000fdc       ??_C@_03OJHLLCGB@inf?$AA@  10018fdc     libucrt:cvt.obj
 0002:00000fe0       ??_C@_03LKNCIKJB@NAN?$AA@  10018fe0     libucrt:cvt.obj
 0002:00000fe4       ??_C@_03LHCJEHON@nan?$AA@  10018fe4     libucrt:cvt.obj
 0002:00000fe8       ??_C@_09OFJJIMPC@NAN?$CISNAN?$CJ?$AA@ 10018fe8     libucrt:cvt.obj
 0002:00000ff4       ??_C@_09IPFBKMDL@nan?$CIsnan?$CJ?$AA@ 10018ff4     libucrt:cvt.obj
 0002:00001000       ??_C@_08IKHNHAJ@NAN?$CIIND?$CJ?$AA@ 10019000     libucrt:cvt.obj
 0002:0000100c       ??_C@_08OFCDMILK@nan?$CIind?$CJ?$AA@ 1001900c     libucrt:cvt.obj
 0002:00001018       ??_C@_05KLBDPFGC@e?$CL000?$AA@ 10019018     libucrt:cvt.obj
 0002:00001020       ??_C@_03KOEHGMDN@Sun?$AA@  10019020     libucrt:nlsdata.obj
 0002:00001024       ??_C@_03PDAGKDH@Mon?$AA@   10019024     libucrt:nlsdata.obj
 0002:00001028       ??_C@_03NAGEINEP@Tue?$AA@  10019028     libucrt:nlsdata.obj
 0002:0000102c       ??_C@_03MHOMLAJA@Wed?$AA@  1001902c     libucrt:nlsdata.obj
 0002:00001030       ??_C@_03IOFIKPDN@Thu?$AA@  10019030     libucrt:nlsdata.obj
 0002:00001034       ??_C@_03IDIOELNC@Fri?$AA@  10019034     libucrt:nlsdata.obj
 0002:00001038       ??_C@_03FEFJNEK@Sat?$AA@   10019038     libucrt:nlsdata.obj
 0002:0000103c       ??_C@_06OOPIFAJ@Sunday?$AA@ 1001903c     libucrt:nlsdata.obj
 0002:00001044       ??_C@_06JLEDEDGH@Monday?$AA@ 10019044     libucrt:nlsdata.obj
 0002:0000104c       ??_C@_07BAAGCFCM@Tuesday?$AA@ 1001904c     libucrt:nlsdata.obj
 0002:00001054       ??_C@_09DLIGFAKA@Wednesday?$AA@ 10019054     libucrt:nlsdata.obj
 0002:00001060       ??_C@_08HACCIKIA@Thursday?$AA@ 10019060     libucrt:nlsdata.obj
 0002:0000106c       ??_C@_06JECMNKMI@Friday?$AA@ 1001906c     libucrt:nlsdata.obj
 0002:00001074       ??_C@_08INBOOONO@Saturday?$AA@ 10019074     libucrt:nlsdata.obj
 0002:00001080       ??_C@_03JIHJHPIE@Jan?$AA@  10019080     libucrt:nlsdata.obj
 0002:00001084       ??_C@_03HJBDCHOM@Feb?$AA@  10019084     libucrt:nlsdata.obj
 0002:00001088       ??_C@_03ODNJBKGA@Mar?$AA@  10019088     libucrt:nlsdata.obj
 0002:0000108c       ??_C@_03LEOLGMJP@Apr?$AA@  1001908c     libucrt:nlsdata.obj
 0002:00001090       ??_C@_03CNMDKL@May?$AA@    10019090     libucrt:nlsdata.obj
 0002:00001094       ??_C@_03IDFGHECI@Jun?$AA@  10019094     libucrt:nlsdata.obj
 0002:00001098       ??_C@_03LBGABGKK@Jul?$AA@  10019098     libucrt:nlsdata.obj
 0002:0000109c       ??_C@_03IFJFEIGA@Aug?$AA@  1001909c     libucrt:nlsdata.obj
 0002:000010a0       ??_C@_03GGCAPAJC@Sep?$AA@  100190a0     libucrt:nlsdata.obj
 0002:000010a4       ??_C@_03BMAOKBAD@Oct?$AA@  100190a4     libucrt:nlsdata.obj
 0002:000010a8       ??_C@_03JPJOFNIA@Nov?$AA@  100190a8     libucrt:nlsdata.obj
 0002:000010ac       ??_C@_03MKABNOCG@Dec?$AA@  100190ac     libucrt:nlsdata.obj
 0002:000010b0       ??_C@_07CGJPFGJA@January?$AA@ 100190b0     libucrt:nlsdata.obj
 0002:000010b8       ??_C@_08GNJGEPFN@February?$AA@ 100190b8     libucrt:nlsdata.obj
 0002:000010c4       ??_C@_05HPCKOFNC@March?$AA@ 100190c4     libucrt:nlsdata.obj
 0002:000010cc       ??_C@_05DMJDNLEJ@April?$AA@ 100190cc     libucrt:nlsdata.obj
 0002:000010d4       ??_C@_04CNLMGBGM@June?$AA@ 100190d4     libucrt:nlsdata.obj
 0002:000010dc       ??_C@_04MIEPOIFP@July?$AA@ 100190dc     libucrt:nlsdata.obj
 0002:000010e4       ??_C@_06LBBHFDDG@August?$AA@ 100190e4     libucrt:nlsdata.obj
 0002:000010ec       ??_C@_09BHHEALKD@September?$AA@ 100190ec     libucrt:nlsdata.obj
 0002:000010f8       ??_C@_07JJNFCEND@October?$AA@ 100190f8     libucrt:nlsdata.obj
 0002:00001100       ??_C@_08HCHEGEOA@November?$AA@ 10019100     libucrt:nlsdata.obj
 0002:0000110c       ??_C@_08EDHMEBNP@December?$AA@ 1001910c     libucrt:nlsdata.obj
 0002:00001118       ??_C@_02DEDBPAFC@AM?$AA@   10019118     libucrt:nlsdata.obj
 0002:0000111c       ??_C@_02CJNFDJBF@PM?$AA@   1001911c     libucrt:nlsdata.obj
 0002:00001120       ??_C@_08BPBNCDIB@MM?1dd?1yy?$AA@ 10019120     libucrt:nlsdata.obj
 0002:0000112c       ??_C@_0BE@CKGJFCPC@dddd?0?5MMMM?5dd?0?5yyyy?$AA@ 1001912c     libucrt:nlsdata.obj
 0002:00001140       ??_C@_08JCCMCCIL@HH?3mm?3ss?$AA@ 10019140     libucrt:nlsdata.obj
 0002:0000114c       ??_C@_17MBGCMIPB@?$AAS?$AAu?$AAn?$AA?$AA@ 1001914c     libucrt:nlsdata.obj
 0002:00001154       ??_C@_17KBOMKBF@?$AAM?$AAo?$AAn?$AA?$AA@ 10019154     libucrt:nlsdata.obj
 0002:0000115c       ??_C@_17BMKGEGOJ@?$AAT?$AAu?$AAe?$AA?$AA@ 1001915c     libucrt:nlsdata.obj
 0002:00001164       ??_C@_17CJEDCEPE@?$AAW?$AAe?$AAd?$AA?$AA@ 10019164     libucrt:nlsdata.obj
 0002:0000116c       ??_C@_17PDPHAADD@?$AAT?$AAh?$AAu?$AA?$AA@ 1001916c     libucrt:nlsdata.obj
 0002:00001174       ??_C@_17HFOLPPLP@?$AAF?$AAr?$AAi?$AA?$AA@ 10019174     libucrt:nlsdata.obj
 0002:0000117c       ??_C@_17GGIBDPIH@?$AAS?$AAa?$AAt?$AA?$AA@ 1001917c     libucrt:nlsdata.obj
 0002:00001184       ??_C@_1O@IHNHDHPB@?$AAS?$AAu?$AAn?$AAd?$AAa?$AAy?$AA?$AA@ 10019184     libucrt:nlsdata.obj
 0002:00001194       ??_C@_1O@MMNBFLIA@?$AAM?$AAo?$AAn?$AAd?$AAa?$AAy?$AA?$AA@ 10019194     libucrt:nlsdata.obj
 0002:000011a4       ??_C@_1BA@ENFBFFEK@?$AAT?$AAu?$AAe?$AAs?$AAd?$AAa?$AAy?$AA?$AA@ 100191a4     libucrt:nlsdata.obj
 0002:000011b4       ??_C@_1BE@EBOGMDOH@?$AAW?$AAe?$AAd?$AAn?$AAe?$AAs?$AAd?$AAa?$AAy?$AA?$AA@ 100191b4     libucrt:nlsdata.obj
 0002:000011c8       ??_C@_1BC@HHMNLIHE@?$AAT?$AAh?$AAu?$AAr?$AAs?$AAd?$AAa?$AAy?$AA?$AA@ 100191c8     libucrt:nlsdata.obj
 0002:000011dc       ??_C@_1O@PDICJHAG@?$AAF?$AAr?$AAi?$AAd?$AAa?$AAy?$AA?$AA@ 100191dc     libucrt:nlsdata.obj
 0002:000011ec       ??_C@_1BC@ENMNNPAJ@?$AAS?$AAa?$AAt?$AAu?$AAr?$AAd?$AAa?$AAy?$AA?$AA@ 100191ec     libucrt:nlsdata.obj
 0002:00001200       ??_C@_17DKNBKCHM@?$AAJ?$AAa?$AAn?$AA?$AA@ 10019200     libucrt:nlsdata.obj
 0002:00001208       ??_C@_17LMDJEKJN@?$AAF?$AAe?$AAb?$AA?$AA@ 10019208     libucrt:nlsdata.obj
 0002:00001210       ??_C@_17CKNLEDEC@?$AAM?$AAa?$AAr?$AA?$AA@ 10019210     libucrt:nlsdata.obj
 0002:00001218       ??_C@_17LFPOIHDD@?$AAA?$AAp?$AAr?$AA?$AA@ 10019218     libucrt:nlsdata.obj
 0002:00001220       ??_C@_17PNNKMEED@?$AAM?$AAa?$AAy?$AA?$AA@ 10019220     libucrt:nlsdata.obj
 0002:00001228       ??_C@_17KCJGOCPB@?$AAJ?$AAu?$AAn?$AA?$AA@ 10019228     libucrt:nlsdata.obj
 0002:00001230       ??_C@_17IJPCKHK@?$AAJ?$AAu?$AAl?$AA?$AA@ 10019230     libucrt:nlsdata.obj
 0002:00001238       ??_C@_17ICPELBCN@?$AAA?$AAu?$AAg?$AA?$AA@ 10019238     libucrt:nlsdata.obj
 0002:00001240       ??_C@_17HCHCOKMG@?$AAS?$AAe?$AAp?$AA?$AA@ 10019240     libucrt:nlsdata.obj
 0002:00001248       ??_C@_17FNLKOI@?$AAO?$AAc?$AAt?$AA?$AA@ 10019248     libucrt:nlsdata.obj
 0002:00001250       ??_C@_17BBDMLCIG@?$AAN?$AAo?$AAv?$AA?$AA@ 10019250     libucrt:nlsdata.obj
 0002:00001258       ??_C@_17EGKACKIF@?$AAD?$AAe?$AAc?$AA?$AA@ 10019258     libucrt:nlsdata.obj
 0002:00001260       ??_C@_1BA@EFMEIEBA@?$AAJ?$AAa?$AAn?$AAu?$AAa?$AAr?$AAy?$AA?$AA@ 10019260     libucrt:nlsdata.obj
 0002:00001270       ??_C@_1BC@JGDDFFAM@?$AAF?$AAe?$AAb?$AAr?$AAu?$AAa?$AAr?$AAy?$AA?$AA@ 10019270     libucrt:nlsdata.obj
 0002:00001284       ??_C@_1M@IKEENEDF@?$AAM?$AAa?$AAr?$AAc?$AAh?$AA?$AA@ 10019284     libucrt:nlsdata.obj
 0002:00001290       ??_C@_1M@GJNLMHFD@?$AAA?$AAp?$AAr?$AAi?$AAl?$AA?$AA@ 10019290     libucrt:nlsdata.obj
 0002:0000129c       ??_C@_19EPFLPGAP@?$AAJ?$AAu?$AAn?$AAe?$AA?$AA@ 1001929c     libucrt:nlsdata.obj
 0002:000012a8       ??_C@_19BIFMLPCD@?$AAJ?$AAu?$AAl?$AAy?$AA?$AA@ 100192a8     libucrt:nlsdata.obj
 0002:000012b4       ??_C@_1O@PAHLKOAC@?$AAA?$AAu?$AAg?$AAu?$AAs?$AAt?$AA?$AA@ 100192b4     libucrt:nlsdata.obj
 0002:000012c4       ??_C@_1BE@DKAAMBJL@?$AAS?$AAe?$AAp?$AAt?$AAe?$AAm?$AAb?$AAe?$AAr?$AA?$AA@ 100192c4     libucrt:nlsdata.obj
 0002:000012d8       ??_C@_1BA@EPANDLNG@?$AAO?$AAc?$AAt?$AAo?$AAb?$AAe?$AAr?$AA?$AA@ 100192d8     libucrt:nlsdata.obj
 0002:000012e8       ??_C@_1BC@BGLIFPF@?$AAN?$AAo?$AAv?$AAe?$AAm?$AAb?$AAe?$AAr?$AA?$AA@ 100192e8     libucrt:nlsdata.obj
 0002:000012fc       ??_C@_1BC@FEMKIFH@?$AAD?$AAe?$AAc?$AAe?$AAm?$AAb?$AAe?$AAr?$AA?$AA@ 100192fc     libucrt:nlsdata.obj
 0002:00001310       ??_C@_15ODEHAHHF@?$AAA?$AAM?$AA?$AA@ 10019310     libucrt:nlsdata.obj
 0002:00001318       ??_C@_15CLMNNGEL@?$AAP?$AAM?$AA?$AA@ 10019318     libucrt:nlsdata.obj
 0002:00001320       ??_C@_1BC@IEBCMHCM@?$AAM?$AAM?$AA?1?$AAd?$AAd?$AA?1?$AAy?$AAy?$AA?$AA@ 10019320     libucrt:nlsdata.obj
 0002:00001334       ??_C@_1CI@KNAKOEBC@?$AAd?$AAd?$AAd?$AAd?$AA?0?$AA?5?$AAM?$AAM?$AAM?$AAM?$AA?5?$AAd?$AAd?$AA?0?$AA?5?$AAy?$AAy?$AAy?$AAy?$AA?$AA@ 10019334     libucrt:nlsdata.obj
 0002:0000135c       ??_C@_1BC@GDGBMEMK@?$AAH?$AAH?$AA?3?$AAm?$AAm?$AA?3?$AAs?$AAs?$AA?$AA@ 1001935c     libucrt:nlsdata.obj
 0002:00001370       ??_C@_1M@BMHNFIME@?$AAe?$AAn?$AA?9?$AAU?$AAS?$AA?$AA@ 10019370     libucrt:nlsdata.obj
 0002:00001380       __wctype                   10019380     libucrt:ctype.obj
 0002:00001588       ___newctype                10019588     libucrt:ctype.obj
 0002:00001888       ___newclmap                10019888     libucrt:ctype.obj
 0002:00001a08       ___newcumap                10019a08     libucrt:ctype.obj
 0002:00001b98       ??_C@_1M@HPNHIDJI@?$AAj?$AAa?$AA?9?$AAJ?$AAP?$AA?$AA@ 10019b98     libucrt:mbctype.obj
 0002:00001ba4       ??_C@_1M@BIBDDEMK@?$AAz?$AAh?$AA?9?$AAC?$AAN?$AA?$AA@ 10019ba4     libucrt:mbctype.obj
 0002:00001bb0       ??_C@_1M@JLOOOEGK@?$AAk?$AAo?$AA?9?$AAK?$AAR?$AA?$AA@ 10019bb0     libucrt:mbctype.obj
 0002:00001bbc       ??_C@_1M@CLNBBOPM@?$AAz?$AAh?$AA?9?$AAT?$AAW?$AA?$AA@ 10019bbc     libucrt:mbctype.obj
 0002:00001c18       ??_C@_1EG@CNNIPFIM@?$AAa?$AAp?$AAi?$AA?9?$AAm?$AAs?$AA?9?$AAw?$AAi?$AAn?$AA?9?$AAa?$AAp?$AAp?$AAm?$AAo?$AAd?$AAe?$AAl?$AA?9?$AAr?$AAu?$AAn?$AAt?$AAi?$AAm?$AAe?$AA?9?$AAl?$AA1?$AA?9?$AA1@ 10019c18     libucrt:winapi_thunks.obj
 0002:00001c60       ??_C@_1EA@JGEFHKEI@?$AAa?$AAp?$AAi?$AA?9?$AAm?$AAs?$AA?9?$AAw?$AAi?$AAn?$AA?9?$AAc?$AAo?$AAr?$AAe?$AA?9?$AAd?$AAa?$AAt?$AAe?$AAt?$AAi?$AAm?$AAe?$AA?9?$AAl?$AA1?$AA?9?$AA1?$AA?9?$AA1?$AA?$AA@ 10019c60     libucrt:winapi_thunks.obj
 0002:00001ca0       ??_C@_1DI@GCIAAENM@?$AAa?$AAp?$AAi?$AA?9?$AAm?$AAs?$AA?9?$AAw?$AAi?$AAn?$AA?9?$AAc?$AAo?$AAr?$AAe?$AA?9?$AAf?$AAi?$AAl?$AAe?$AA?9?$AAl?$AA2?$AA?9?$AA1?$AA?9?$AA1?$AA?$AA@ 10019ca0     libucrt:winapi_thunks.obj
 0002:00001cd8       ??_C@_1EI@MPIAOHOC@?$AAa?$AAp?$AAi?$AA?9?$AAm?$AAs?$AA?9?$AAw?$AAi?$AAn?$AA?9?$AAc?$AAo?$AAr?$AAe?$AA?9?$AAl?$AAo?$AAc?$AAa?$AAl?$AAi?$AAz?$AAa?$AAt?$AAi?$AAo?$AAn?$AA?9?$AAl?$AA1?$AA?9@ 10019cd8     libucrt:winapi_thunks.obj
 0002:00001d20       ??_C@_1FK@FPHCKFIE@?$AAa?$AAp?$AAi?$AA?9?$AAm?$AAs?$AA?9?$AAw?$AAi?$AAn?$AA?9?$AAc?$AAo?$AAr?$AAe?$AA?9?$AAl?$AAo?$AAc?$AAa?$AAl?$AAi?$AAz?$AAa?$AAt?$AAi?$AAo?$AAn?$AA?9?$AAo?$AAb?$AAs@ 10019d20     libucrt:winapi_thunks.obj
 0002:00001d80       ??_C@_1EM@DILCGIIO@?$AAa?$AAp?$AAi?$AA?9?$AAm?$AAs?$AA?9?$AAw?$AAi?$AAn?$AA?9?$AAc?$AAo?$AAr?$AAe?$AA?9?$AAp?$AAr?$AAo?$AAc?$AAe?$AAs?$AAs?$AAt?$AAh?$AAr?$AAe?$AAa?$AAd?$AAs?$AA?9?$AAl@ 10019d80     libucrt:winapi_thunks.obj
 0002:00001dcc       ??_C@_1DM@LNCGDDPN@?$AAa?$AAp?$AAi?$AA?9?$AAm?$AAs?$AA?9?$AAw?$AAi?$AAn?$AA?9?$AAc?$AAo?$AAr?$AAe?$AA?9?$AAs?$AAt?$AAr?$AAi?$AAn?$AAg?$AA?9?$AAl?$AA1?$AA?9?$AA1?$AA?9?$AA0?$AA?$AA@ 10019dcc     libucrt:winapi_thunks.obj
 0002:00001e08       ??_C@_1DO@FPAPJEMD@?$AAa?$AAp?$AAi?$AA?9?$AAm?$AAs?$AA?9?$AAw?$AAi?$AAn?$AA?9?$AAc?$AAo?$AAr?$AAe?$AA?9?$AAs?$AAy?$AAs?$AAi?$AAn?$AAf?$AAo?$AA?9?$AAl?$AA1?$AA?9?$AA2?$AA?9?$AA1?$AA?$AA@ 10019e08     libucrt:winapi_thunks.obj
 0002:00001e48       ??_C@_1DK@NDHNAHIO@?$AAa?$AAp?$AAi?$AA?9?$AAm?$AAs?$AA?9?$AAw?$AAi?$AAn?$AA?9?$AAc?$AAo?$AAr?$AAe?$AA?9?$AAw?$AAi?$AAn?$AAr?$AAt?$AA?9?$AAl?$AA1?$AA?9?$AA1?$AA?9?$AA0?$AA?$AA@ 10019e48     libucrt:winapi_thunks.obj
 0002:00001e84       ??_C@_1DM@KGHDGBCM@?$AAa?$AAp?$AAi?$AA?9?$AAm?$AAs?$AA?9?$AAw?$AAi?$AAn?$AA?9?$AAc?$AAo?$AAr?$AAe?$AA?9?$AAx?$AAs?$AAt?$AAa?$AAt?$AAe?$AA?9?$AAl?$AA2?$AA?9?$AA1?$AA?9?$AA0?$AA?$AA@ 10019e84     libucrt:winapi_thunks.obj
 0002:00001ec0       ??_C@_1EO@IJIOEFOH@?$AAa?$AAp?$AAi?$AA?9?$AAm?$AAs?$AA?9?$AAw?$AAi?$AAn?$AA?9?$AAr?$AAt?$AAc?$AAo?$AAr?$AAe?$AA?9?$AAn?$AAt?$AAu?$AAs?$AAe?$AAr?$AA?9?$AAw?$AAi?$AAn?$AAd?$AAo?$AAw?$AA?9@ 10019ec0     libucrt:winapi_thunks.obj
 0002:00001f10       ??_C@_1FG@HHGEKANL@?$AAa?$AAp?$AAi?$AA?9?$AAm?$AAs?$AA?9?$AAw?$AAi?$AAn?$AA?9?$AAs?$AAe?$AAc?$AAu?$AAr?$AAi?$AAt?$AAy?$AA?9?$AAs?$AAy?$AAs?$AAt?$AAe?$AAm?$AAf?$AAu?$AAn?$AAc?$AAt?$AAi@ 10019f10     libucrt:winapi_thunks.obj
 0002:00001f68       ??_C@_1FG@NCKKOLKO@?$AAe?$AAx?$AAt?$AA?9?$AAm?$AAs?$AA?9?$AAw?$AAi?$AAn?$AA?9?$AAk?$AAe?$AAr?$AAn?$AAe?$AAl?$AA3?$AA2?$AA?9?$AAp?$AAa?$AAc?$AAk?$AAa?$AAg?$AAe?$AA?9?$AAc?$AAu?$AAr?$AAr@ 10019f68     libucrt:winapi_thunks.obj
 0002:00001fc0       ??_C@_1EG@DBIOJECG@?$AAe?$AAx?$AAt?$AA?9?$AAm?$AAs?$AA?9?$AAw?$AAi?$AAn?$AA?9?$AAn?$AAt?$AAu?$AAs?$AAe?$AAr?$AA?9?$AAd?$AAi?$AAa?$AAl?$AAo?$AAg?$AAb?$AAo?$AAx?$AA?9?$AAl?$AA1?$AA?9?$AA1@ 10019fc0     libucrt:winapi_thunks.obj
 0002:00002008       ??_C@_1EO@FIHMJCLF@?$AAe?$AAx?$AAt?$AA?9?$AAm?$AAs?$AA?9?$AAw?$AAi?$AAn?$AA?9?$AAn?$AAt?$AAu?$AAs?$AAe?$AAr?$AA?9?$AAw?$AAi?$AAn?$AAd?$AAo?$AAw?$AAs?$AAt?$AAa?$AAt?$AAi?$AAo?$AAn?$AA?9@ 1001a008     libucrt:winapi_thunks.obj
 0002:00002058       ??_C@_1O@BCCLBEOE@?$AAu?$AAs?$AAe?$AAr?$AA3?$AA2?$AA?$AA@ 1001a058     libucrt:winapi_thunks.obj
 0002:00002090       ??_C@_0BA@HNOPNCHB@GetActiveWindow?$AA@ 1001a090     libucrt:winapi_thunks.obj
 0002:000020a8       ??_C@_0BE@JOGNEJCI@GetCurrentPackageId?$AA@ 1001a0a8     libucrt:winapi_thunks.obj
 0002:000020c4       ??_C@_0BD@HHGDFDBJ@GetLastActivePopup?$AA@ 1001a0c4     libucrt:winapi_thunks.obj
 0002:000020e0       ??_C@_0BI@DFKBFLJE@GetProcessWindowStation?$AA@ 1001a0e0     libucrt:winapi_thunks.obj
 0002:00002100       ??_C@_0BK@DEKFELLI@GetUserObjectInformationW?$AA@ 1001a100     libucrt:winapi_thunks.obj
 0002:0000212c       ??_C@_0O@KKBNKAPF@LCMapStringEx?$AA@ 1001a12c     libucrt:winapi_thunks.obj
 0002:00002144       ??_C@_0BB@HBDEELFH@LocaleNameToLCID?$AA@ 1001a144     libucrt:winapi_thunks.obj
 0002:00002160       ??_C@_0M@CHKKJDAI@MessageBoxA?$AA@ 1001a160     libucrt:winapi_thunks.obj
 0002:00002174       ??_C@_0M@DLDCCGNP@MessageBoxW?$AA@ 1001a174     libucrt:winapi_thunks.obj
 0002:00002180       ?large_power_data@?1??multiply_by_power_of_ten@__crt_strtox@@YA_NAAUbig_integer@2@I@Z@4QBIB 1001a180     libucrt:cfout.obj
 0002:00002a88       ?large_power_indices@?1??multiply_by_power_of_ten@__crt_strtox@@YA_NAAUbig_integer@2@I@Z@4QBUunpack_index@?1??12@YA_N0I@Z@B 1001aa88     libucrt:cfout.obj
 0002:00002b20       ?small_powers_of_ten@?6??multiply_by_power_of_ten@__crt_strtox@@YA_NAAUbig_integer@2@I@Z@4QBIB 1001ab20     libucrt:cfout.obj
 0002:00002b44       ??_C@_01GBGANLPD@0?$AA@    1001ab44     libucrt:cfout.obj
 0002:00002b48       ??_C@_05DNEBIAHO@1?$CDINF?$AA@ 1001ab48     libucrt:cfout.obj
 0002:00002b50       ??_C@_06IMKFLFPG@1?$CDQNAN?$AA@ 1001ab50     libucrt:cfout.obj
 0002:00002b58       ??_C@_06PGGFOGJG@1?$CDSNAN?$AA@ 1001ab58     libucrt:cfout.obj
 0002:00002b60       ??_C@_05PHHOCPM@1?$CDIND?$AA@ 1001ab60     libucrt:cfout.obj
 0002:00002b68       ??_C@_15PJPFLCCM@?$AAu?$AAk?$AA?$AA@ 1001ab68     libucrt:get_qualified_locale.obj
 0002:00003290       ??_C@_15EMKDOKLE@?$AAa?$AAr?$AA?$AA@ 1001b290     libucrt:lcidtoname_downlevel.obj
 0002:00003298       ??_C@_15KNPADPLH@?$AAb?$AAg?$AA?$AA@ 1001b298     libucrt:lcidtoname_downlevel.obj
 0002:000032a0       ??_C@_15EDMHLDMO@?$AAc?$AAa?$AA?$AA@ 1001b2a0     libucrt:lcidtoname_downlevel.obj
 0002:000032a8       ??_C@_1O@BPEAJADD@?$AAz?$AAh?$AA?9?$AAC?$AAH?$AAS?$AA?$AA@ 1001b2a8     libucrt:lcidtoname_downlevel.obj
 0002:000032b8       ??_C@_15LJNHCMNK@?$AAc?$AAs?$AA?$AA@ 1001b2b8     libucrt:lcidtoname_downlevel.obj
 0002:000032c0       ??_C@_15FOMCIDHG@?$AAd?$AAa?$AA?$AA@ 1001b2c0     libucrt:lcidtoname_downlevel.obj
 0002:000032c8       ??_C@_15NBKABECB@?$AAd?$AAe?$AA?$AA@ 1001b2c8     libucrt:lcidtoname_downlevel.obj
 0002:000032d0       ??_C@_15GHPEIIAO@?$AAe?$AAl?$AA?$AA@ 1001b2d0     libucrt:lcidtoname_downlevel.obj
 0002:000032d8       ??_C@_15MNPNEAIF@?$AAe?$AAn?$AA?$AA@ 1001b2d8     libucrt:lcidtoname_downlevel.obj
 0002:000032e0       ??_C@_15GPIOMPMH@?$AAe?$AAs?$AA?$AA@ 1001b2e0     libucrt:lcidtoname_downlevel.obj
 0002:000032e8       ??_C@_15NGLOAKJC@?$AAf?$AAi?$AA?$AA@ 1001b2e8     libucrt:lcidtoname_downlevel.obj
 0002:000032f0       ??_C@_15FBKGNKAM@?$AAf?$AAr?$AA?$AA@ 1001b2f0     libucrt:lcidtoname_downlevel.obj
 0002:000032f8       ??_C@_15KGGCNEFK@?$AAh?$AAe?$AA?$AA@ 1001b2f8     libucrt:lcidtoname_downlevel.obj
 0002:00003300       ??_C@_15PGHLIDMF@?$AAh?$AAu?$AA?$AA@ 1001b300     libucrt:lcidtoname_downlevel.obj
 0002:00003308       ??_C@_15BIEMAPLM@?$AAi?$AAs?$AA?$AA@ 1001b308     libucrt:lcidtoname_downlevel.obj
 0002:00003310       ??_C@_15IFJLDHAF@?$AAi?$AAt?$AA?$AA@ 1001b310     libucrt:lcidtoname_downlevel.obj
 0002:00003318       ??_C@_15GEMIOCAG@?$AAj?$AAa?$AA?$AA@ 1001b318     libucrt:lcidtoname_downlevel.obj
 0002:00003320       ??_C@_15EPELEGJA@?$AAk?$AAo?$AA?$AA@ 1001b320     libucrt:lcidtoname_downlevel.obj
 0002:00003328       ??_C@_15NDDHIMN@?$AAn?$AAl?$AA?$AA@ 1001b328     libucrt:lcidtoname_downlevel.obj
 0002:00003330       ??_C@_15BPIGNHCD@?$AAn?$AAo?$AA?$AA@ 1001b330     libucrt:lcidtoname_downlevel.obj
 0002:00003338       ??_C@_15DEOPBLCG@?$AAp?$AAl?$AA?$AA@ 1001b338     libucrt:lcidtoname_downlevel.obj
 0002:00003340       ??_C@_15KBECGEFG@?$AAp?$AAt?$AA?$AA@ 1001b340     libucrt:lcidtoname_downlevel.obj
 0002:00003348       ??_C@_15GLJCBFMD@?$AAr?$AAo?$AA?$AA@ 1001b348     libucrt:lcidtoname_downlevel.obj
 0002:00003350       ??_C@_15FEDGKCDI@?$AAr?$AAu?$AA?$AA@ 1001b350     libucrt:lcidtoname_downlevel.obj
 0002:00003358       ??_C@_15GLKMLLHM@?$AAh?$AAr?$AA?$AA@ 1001b358     libucrt:lcidtoname_downlevel.obj
 0002:00003360       ??_C@_15CPKMFBDB@?$AAs?$AAk?$AA?$AA@ 1001b360     libucrt:lcidtoname_downlevel.obj
 0002:00003368       ??_C@_15BAAIOGMK@?$AAs?$AAq?$AA?$AA@ 1001b368     libucrt:lcidtoname_downlevel.obj
 0002:00003370       ??_C@_15INNPNOHD@?$AAs?$AAv?$AA?$AA@ 1001b370     libucrt:lcidtoname_downlevel.obj
 0002:00003378       ??_C@_15CABMMOGH@?$AAt?$AAh?$AA?$AA@ 1001b378     libucrt:lcidtoname_downlevel.obj
 0002:00003380       ??_C@_15BPLIHJJM@?$AAt?$AAr?$AA?$AA@ 1001b380     libucrt:lcidtoname_downlevel.obj
 0002:00003388       ??_C@_15NEOEKKDJ@?$AAu?$AAr?$AA?$AA@ 1001b388     libucrt:lcidtoname_downlevel.obj
 0002:00003390       ??_C@_15NFICGAJK@?$AAi?$AAd?$AA?$AA@ 1001b390     libucrt:lcidtoname_downlevel.obj
 0002:00003398       ??_C@_15HPJPHDM@?$AAb?$AAe?$AA?$AA@ 1001b398     libucrt:lcidtoname_downlevel.obj
 0002:000033a0       ??_C@_15LCHLGJII@?$AAs?$AAl?$AA?$AA@ 1001b3a0     libucrt:lcidtoname_downlevel.obj
 0002:000033a8       ??_C@_15PCFJPHHO@?$AAe?$AAt?$AA?$AA@ 1001b3a8     libucrt:lcidtoname_downlevel.obj
 0002:000033b0       ??_C@_15HPFPGODN@?$AAl?$AAv?$AA?$AA@ 1001b3b0     libucrt:lcidtoname_downlevel.obj
 0002:000033b8       ??_C@_15NFFGKGLG@?$AAl?$AAt?$AA?$AA@ 1001b3b8     libucrt:lcidtoname_downlevel.obj
 0002:000033c0       ??_C@_15BDAKCCHN@?$AAf?$AAa?$AA?$AA@ 1001b3c0     libucrt:lcidtoname_downlevel.obj
 0002:000033c8       ??_C@_15NFGIAIAJ@?$AAv?$AAi?$AA?$AA@ 1001b3c8     libucrt:lcidtoname_downlevel.obj
 0002:000033d0       ??_C@_15LMKNDMHN@?$AAh?$AAy?$AA?$AA@ 1001b3d0     libucrt:lcidtoname_downlevel.obj
 0002:000033d8       ??_C@_15IJBHMCFL@?$AAa?$AAz?$AA?$AA@ 1001b3d8     libucrt:lcidtoname_downlevel.obj
 0002:000033e0       ??_C@_15EKOFJABL@?$AAe?$AAu?$AA?$AA@ 1001b3e0     libucrt:lcidtoname_downlevel.obj
 0002:000033e8       ??_C@_15BGHADCNK@?$AAm?$AAk?$AA?$AA@ 1001b3e8     libucrt:lcidtoname_downlevel.obj
 0002:000033f0       ??_C@_15JDNICKHM@?$AAa?$AAf?$AA?$AA@ 1001b3f0     libucrt:lcidtoname_downlevel.obj
 0002:000033f8       ??_C@_15KPJEDBKD@?$AAk?$AAa?$AA?$AA@ 1001b3f8     libucrt:lcidtoname_downlevel.obj
 0002:00003400       ??_C@_15PDNFFFEO@?$AAf?$AAo?$AA?$AA@ 1001b400     libucrt:lcidtoname_downlevel.obj
 0002:00003408       ??_C@_15OMLEGLOC@?$AAh?$AAi?$AA?$AA@ 1001b408     libucrt:lcidtoname_downlevel.obj
 0002:00003410       ??_C@_15IDNNENKK@?$AAm?$AAs?$AA?$AA@ 1001b410     libucrt:lcidtoname_downlevel.obj
 0002:00003418       ??_C@_15MACJNBMH@?$AAk?$AAk?$AA?$AA@ 1001b418     libucrt:lcidtoname_downlevel.obj
 0002:00003420       ??_C@_15DKDJEOND@?$AAk?$AAy?$AA?$AA@ 1001b420     libucrt:lcidtoname_downlevel.obj
 0002:00003428       ??_C@_15DFGDLJBG@?$AAs?$AAw?$AA?$AA@ 1001b428     libucrt:lcidtoname_downlevel.obj
 0002:00003430       ??_C@_15BBFAICNG@?$AAu?$AAz?$AA?$AA@ 1001b430     libucrt:lcidtoname_downlevel.obj
 0002:00003438       ??_C@_15DKNDCGEA@?$AAt?$AAt?$AA?$AA@ 1001b438     libucrt:lcidtoname_downlevel.obj
 0002:00003440       ??_C@_15MGIFMDPL@?$AAp?$AAa?$AA?$AA@ 1001b440     libucrt:lcidtoname_downlevel.obj
 0002:00003448       ??_C@_15HCNDBBA@?$AAg?$AAu?$AA?$AA@ 1001b448     libucrt:lcidtoname_downlevel.obj
 0002:00003450       ??_C@_15FNBEIBON@?$AAt?$AAa?$AA?$AA@ 1001b450     libucrt:lcidtoname_downlevel.obj
 0002:00003458       ??_C@_15NCHGBGLK@?$AAt?$AAe?$AA?$AA@ 1001b458     libucrt:lcidtoname_downlevel.obj
 0002:00003460       ??_C@_15PHPHCBPF@?$AAk?$AAn?$AA?$AA@ 1001b460     libucrt:lcidtoname_downlevel.obj
 0002:00003468       ??_C@_15DLGBCKMP@?$AAm?$AAr?$AA?$AA@ 1001b468     libucrt:lcidtoname_downlevel.obj
 0002:00003470       ??_C@_15EABBLBFF@?$AAs?$AAa?$AA?$AA@ 1001b470     libucrt:lcidtoname_downlevel.obj
 0002:00003478       ??_C@_15CBKOMCOI@?$AAm?$AAn?$AA?$AA@ 1001b478     libucrt:lcidtoname_downlevel.obj
 0002:00003480       ??_C@_15CKDMCJAF@?$AAg?$AAl?$AA?$AA@ 1001b480     libucrt:lcidtoname_downlevel.obj
 0002:00003488       ??_C@_17CNJFBPG@?$AAk?$AAo?$AAk?$AA?$AA@ 1001b488     libucrt:lcidtoname_downlevel.obj
 0002:00003490       ??_C@_17FFBJICPL@?$AAs?$AAy?$AAr?$AA?$AA@ 1001b490     libucrt:lcidtoname_downlevel.obj
 0002:00003498       ??_C@_17KPNDCPAF@?$AAd?$AAi?$AAv?$AA?$AA@ 1001b498     libucrt:lcidtoname_downlevel.obj
 0002:000034a0       ??_C@_1M@OKAHONE@?$AAa?$AAr?$AA?9?$AAS?$AAA?$AA?$AA@ 1001b4a0     libucrt:lcidtoname_downlevel.obj
 0002:000034ac       ??_C@_1M@FFFIGIGK@?$AAb?$AAg?$AA?9?$AAB?$AAG?$AA?$AA@ 1001b4ac     libucrt:lcidtoname_downlevel.obj
 0002:000034b8       ??_C@_1M@BJNKEDC@?$AAc?$AAa?$AA?9?$AAE?$AAS?$AA?$AA@ 1001b4b8     libucrt:lcidtoname_downlevel.obj
 0002:000034c4       ??_C@_1M@IJJHFJHA@?$AAc?$AAs?$AA?9?$AAC?$AAZ?$AA?$AA@ 1001b4c4     libucrt:lcidtoname_downlevel.obj
 0002:000034d0       ??_C@_1M@CLPEOBGI@?$AAd?$AAa?$AA?9?$AAD?$AAK?$AA?$AA@ 1001b4d0     libucrt:lcidtoname_downlevel.obj
 0002:000034dc       ??_C@_1M@MCMADGCB@?$AAd?$AAe?$AA?9?$AAD?$AAE?$AA?$AA@ 1001b4dc     libucrt:lcidtoname_downlevel.obj
 0002:000034e8       ??_C@_1M@OOCKEMAM@?$AAe?$AAl?$AA?9?$AAG?$AAR?$AA?$AA@ 1001b4e8     libucrt:lcidtoname_downlevel.obj
 0002:000034f4       ??_C@_1M@DDNJFGID@?$AAf?$AAi?$AA?9?$AAF?$AAI?$AA?$AA@ 1001b4f4     libucrt:lcidtoname_downlevel.obj
 0002:00003500       ??_C@_1M@GLIPPMAC@?$AAf?$AAr?$AA?9?$AAF?$AAR?$AA?$AA@ 1001b500     libucrt:lcidtoname_downlevel.obj
 0002:0000350c       ??_C@_1M@GFMCHPE@?$AAh?$AAe?$AA?9?$AAI?$AAL?$AA?$AA@ 1001b50c     libucrt:lcidtoname_downlevel.obj
 0002:00003518       ??_C@_1M@MHLPGNKM@?$AAh?$AAu?$AA?9?$AAH?$AAU?$AA?$AA@ 1001b518     libucrt:lcidtoname_downlevel.obj
 0002:00003524       ??_C@_1M@LPDDNNPN@?$AAi?$AAs?$AA?9?$AAI?$AAS?$AA?$AA@ 1001b524     libucrt:lcidtoname_downlevel.obj
 0002:00003530       ??_C@_1M@MADIPODN@?$AAi?$AAt?$AA?9?$AAI?$AAT?$AA?$AA@ 1001b530     libucrt:lcidtoname_downlevel.obj
 0002:0000353c       ??_C@_1M@IHBJJGG@?$AAn?$AAl?$AA?9?$AAN?$AAL?$AA?$AA@ 1001b53c     libucrt:lcidtoname_downlevel.obj
 0002:00003548       ??_C@_1M@EANAGDL@?$AAn?$AAb?$AA?9?$AAN?$AAO?$AA?$AA@ 1001b548     libucrt:lcidtoname_downlevel.obj
 0002:00003554       ??_C@_1M@NEIEMEGP@?$AAp?$AAl?$AA?9?$AAP?$AAL?$AA?$AA@ 1001b554     libucrt:lcidtoname_downlevel.obj
 0002:00003560       ??_C@_1M@BOCFIGEP@?$AAp?$AAt?$AA?9?$AAB?$AAR?$AA?$AA@ 1001b560     libucrt:lcidtoname_downlevel.obj
 0002:0000356c       ??_C@_1M@IMPFOPBG@?$AAr?$AAo?$AA?9?$AAR?$AAO?$AA?$AA@ 1001b56c     libucrt:lcidtoname_downlevel.obj
 0002:00003578       ??_C@_1M@IDNNEJMM@?$AAr?$AAu?$AA?9?$AAR?$AAU?$AA?$AA@ 1001b578     libucrt:lcidtoname_downlevel.obj
 0002:00003584       ??_C@_1M@LILEEOGM@?$AAh?$AAr?$AA?9?$AAH?$AAR?$AA?$AA@ 1001b584     libucrt:lcidtoname_downlevel.obj
 0002:00003590       ??_C@_1M@FKIFEHPB@?$AAs?$AAk?$AA?9?$AAS?$AAK?$AA?$AA@ 1001b590     libucrt:lcidtoname_downlevel.obj
 0002:0000359c       ??_C@_1M@LJMAMNPJ@?$AAs?$AAq?$AA?9?$AAA?$AAL?$AA?$AA@ 1001b59c     libucrt:lcidtoname_downlevel.obj
 0002:000035a8       ??_C@_1M@GIAKDKJK@?$AAs?$AAv?$AA?9?$AAS?$AAE?$AA?$AA@ 1001b5a8     libucrt:lcidtoname_downlevel.obj
 0002:000035b4       ??_C@_1M@MKJKIKCL@?$AAt?$AAh?$AA?9?$AAT?$AAH?$AA?$AA@ 1001b5b4     libucrt:lcidtoname_downlevel.obj
 0002:000035c0       ??_C@_1M@MFLCCMPB@?$AAt?$AAr?$AA?9?$AAT?$AAR?$AA?$AA@ 1001b5c0     libucrt:lcidtoname_downlevel.obj
 0002:000035cc       ??_C@_1M@OIJHDKJN@?$AAu?$AAr?$AA?9?$AAP?$AAK?$AA?$AA@ 1001b5cc     libucrt:lcidtoname_downlevel.obj
 0002:000035d8       ??_C@_1M@LHIPCIEK@?$AAi?$AAd?$AA?9?$AAI?$AAD?$AA?$AA@ 1001b5d8     libucrt:lcidtoname_downlevel.obj
 0002:000035e4       ??_C@_1M@MFMOBGI@?$AAu?$AAk?$AA?9?$AAU?$AAA?$AA?$AA@ 1001b5e4     libucrt:lcidtoname_downlevel.obj
 0002:000035f0       ??_C@_1M@OBGLJIPL@?$AAb?$AAe?$AA?9?$AAB?$AAY?$AA?$AA@ 1001b5f0     libucrt:lcidtoname_downlevel.obj
 0002:000035fc       ??_C@_1M@BCFAJEAD@?$AAs?$AAl?$AA?9?$AAS?$AAI?$AA?$AA@ 1001b5fc     libucrt:lcidtoname_downlevel.obj
 0002:00003608       ??_C@_1M@FKFFEDDN@?$AAe?$AAt?$AA?9?$AAE?$AAE?$AA?$AA@ 1001b608     libucrt:lcidtoname_downlevel.obj
 0002:00003614       ??_C@_1M@KGKKAACI@?$AAl?$AAv?$AA?9?$AAL?$AAV?$AA?$AA@ 1001b614     libucrt:lcidtoname_downlevel.obj
 0002:00003620       ??_C@_1M@IFGBIJO@?$AAl?$AAt?$AA?9?$AAL?$AAT?$AA?$AA@ 1001b620     libucrt:lcidtoname_downlevel.obj
 0002:0000362c       ??_C@_1M@FGEAHEDM@?$AAf?$AAa?$AA?9?$AAI?$AAR?$AA?$AA@ 1001b62c     libucrt:lcidtoname_downlevel.obj
 0002:00003638       ??_C@_1M@KBMAIBFN@?$AAv?$AAi?$AA?9?$AAV?$AAN?$AA?$AA@ 1001b638     libucrt:lcidtoname_downlevel.obj
 0002:00003644       ??_C@_1M@GPCBKDJK@?$AAh?$AAy?$AA?9?$AAA?$AAM?$AA?$AA@ 1001b644     libucrt:lcidtoname_downlevel.obj
 0002:00003650       ??_C@_1BG@BECMDDJB@?$AAa?$AAz?$AA?9?$AAA?$AAZ?$AA?9?$AAL?$AAa?$AAt?$AAn?$AA?$AA@ 1001b650     libucrt:lcidtoname_downlevel.obj
 0002:00003668       ??_C@_1M@MAOFCAEA@?$AAe?$AAu?$AA?9?$AAE?$AAS?$AA?$AA@ 1001b668     libucrt:lcidtoname_downlevel.obj
 0002:00003674       ??_C@_1M@IGHABKPI@?$AAm?$AAk?$AA?9?$AAM?$AAK?$AA?$AA@ 1001b674     libucrt:lcidtoname_downlevel.obj
 0002:00003680       ??_C@_1M@IAIGNEJG@?$AAt?$AAn?$AA?9?$AAZ?$AAA?$AA?$AA@ 1001b680     libucrt:lcidtoname_downlevel.obj
 0002:0000368c       ??_C@_1M@IIJCOJFA@?$AAx?$AAh?$AA?9?$AAZ?$AAA?$AA?$AA@ 1001b68c     libucrt:lcidtoname_downlevel.obj
 0002:00003698       ??_C@_1M@LGPJHNJH@?$AAz?$AAu?$AA?9?$AAZ?$AAA?$AA?$AA@ 1001b698     libucrt:lcidtoname_downlevel.obj
 0002:000036a4       ??_C@_1M@HOKAOIO@?$AAa?$AAf?$AA?9?$AAZ?$AAA?$AA?$AA@ 1001b6a4     libucrt:lcidtoname_downlevel.obj
 0002:000036b0       ??_C@_1M@DPCLHLIE@?$AAk?$AAa?$AA?9?$AAG?$AAE?$AA?$AA@ 1001b6b0     libucrt:lcidtoname_downlevel.obj
 0002:000036bc       ??_C@_1M@BLKMHJBI@?$AAf?$AAo?$AA?9?$AAF?$AAO?$AA?$AA@ 1001b6bc     libucrt:lcidtoname_downlevel.obj
 0002:000036c8       ??_C@_1M@LGGJAPPB@?$AAh?$AAi?$AA?9?$AAI?$AAN?$AA?$AA@ 1001b6c8     libucrt:lcidtoname_downlevel.obj
 0002:000036d4       ??_C@_1M@FIKPIHFE@?$AAm?$AAt?$AA?9?$AAM?$AAT?$AA?$AA@ 1001b6d4     libucrt:lcidtoname_downlevel.obj
 0002:000036e0       ??_C@_1M@HEGGPBFA@?$AAs?$AAe?$AA?9?$AAN?$AAO?$AA?$AA@ 1001b6e0     libucrt:lcidtoname_downlevel.obj
 0002:000036ec       ??_C@_1M@EIBJEEPA@?$AAm?$AAs?$AA?9?$AAM?$AAY?$AA?$AA@ 1001b6ec     libucrt:lcidtoname_downlevel.obj
 0002:000036f8       ??_C@_1M@FHLBGMPP@?$AAk?$AAk?$AA?9?$AAK?$AAZ?$AA?$AA@ 1001b6f8     libucrt:lcidtoname_downlevel.obj
 0002:00003704       ??_C@_1M@NGJJLCGI@?$AAk?$AAy?$AA?9?$AAK?$AAG?$AA?$AA@ 1001b704     libucrt:lcidtoname_downlevel.obj
 0002:00003710       ??_C@_1M@GIENNBFC@?$AAs?$AAw?$AA?9?$AAK?$AAE?$AA?$AA@ 1001b710     libucrt:lcidtoname_downlevel.obj
 0002:0000371c       ??_C@_1BG@NDGMJIMJ@?$AAu?$AAz?$AA?9?$AAU?$AAZ?$AA?9?$AAL?$AAa?$AAt?$AAn?$AA?$AA@ 1001b71c     libucrt:lcidtoname_downlevel.obj
 0002:00003734       ??_C@_1M@IDCCIHBC@?$AAt?$AAt?$AA?9?$AAR?$AAU?$AA?$AA@ 1001b734     libucrt:lcidtoname_downlevel.obj
 0002:00003740       ??_C@_1M@LOICPMOJ@?$AAb?$AAn?$AA?9?$AAI?$AAN?$AA?$AA@ 1001b740     libucrt:lcidtoname_downlevel.obj
 0002:0000374c       ??_C@_1M@KPKKNEAH@?$AAp?$AAa?$AA?9?$AAI?$AAN?$AA?$AA@ 1001b74c     libucrt:lcidtoname_downlevel.obj
 0002:00003758       ??_C@_1M@PJGPPBOG@?$AAg?$AAu?$AA?9?$AAI?$AAN?$AA?$AA@ 1001b758     libucrt:lcidtoname_downlevel.obj
 0002:00003764       ??_C@_1M@KMKMOPHI@?$AAt?$AAa?$AA?9?$AAI?$AAN?$AA?$AA@ 1001b764     libucrt:lcidtoname_downlevel.obj
 0002:00003770       ??_C@_1M@KFEHEPAC@?$AAt?$AAe?$AA?9?$AAI?$AAN?$AA?$AA@ 1001b770     libucrt:lcidtoname_downlevel.obj
 0002:0000377c       ??_C@_1M@CDCLMGHI@?$AAk?$AAn?$AA?9?$AAI?$AAN?$AA?$AA@ 1001b77c     libucrt:lcidtoname_downlevel.obj
 0002:00003788       ??_C@_1M@MIODLDKF@?$AAm?$AAl?$AA?9?$AAI?$AAN?$AA?$AA@ 1001b788     libucrt:lcidtoname_downlevel.obj
 0002:00003794       ??_C@_1M@PBIEACPO@?$AAm?$AAr?$AA?9?$AAI?$AAN?$AA?$AA@ 1001b794     libucrt:lcidtoname_downlevel.obj
 0002:000037a0       ??_C@_1M@NIDEAGPH@?$AAs?$AAa?$AA?9?$AAI?$AAN?$AA?$AA@ 1001b7a0     libucrt:lcidtoname_downlevel.obj
 0002:000037ac       ??_C@_1M@FHIHCBIO@?$AAm?$AAn?$AA?9?$AAM?$AAN?$AA?$AA@ 1001b7ac     libucrt:lcidtoname_downlevel.obj
 0002:000037b8       ??_C@_1M@JAIJPENP@?$AAc?$AAy?$AA?9?$AAG?$AAB?$AA?$AA@ 1001b7b8     libucrt:lcidtoname_downlevel.obj
 0002:000037c4       ??_C@_1M@PHGFBEPN@?$AAg?$AAl?$AA?9?$AAE?$AAS?$AA?$AA@ 1001b7c4     libucrt:lcidtoname_downlevel.obj
 0002:000037d0       ??_C@_1O@KPIPDNCP@?$AAk?$AAo?$AAk?$AA?9?$AAI?$AAN?$AA?$AA@ 1001b7d0     libucrt:lcidtoname_downlevel.obj
 0002:000037e0       ??_C@_1O@KNHJLDJA@?$AAs?$AAy?$AAr?$AA?9?$AAS?$AAY?$AA?$AA@ 1001b7e0     libucrt:lcidtoname_downlevel.obj
 0002:000037f0       ??_C@_1O@MKEKBLAH@?$AAd?$AAi?$AAv?$AA?9?$AAM?$AAV?$AA?$AA@ 1001b7f0     libucrt:lcidtoname_downlevel.obj
 0002:00003800       ??_C@_1O@OHDCKDDF@?$AAq?$AAu?$AAz?$AA?9?$AAB?$AAO?$AA?$AA@ 1001b800     libucrt:lcidtoname_downlevel.obj
 0002:00003810       ??_C@_1M@LEPJNLFD@?$AAn?$AAs?$AA?9?$AAZ?$AAA?$AA?$AA@ 1001b810     libucrt:lcidtoname_downlevel.obj
 0002:0000381c       ??_C@_1M@OMLEIIJB@?$AAm?$AAi?$AA?9?$AAN?$AAZ?$AA?$AA@ 1001b81c     libucrt:lcidtoname_downlevel.obj
 0002:00003828       ??_C@_1M@PMPEAILG@?$AAa?$AAr?$AA?9?$AAI?$AAQ?$AA?$AA@ 1001b828     libucrt:lcidtoname_downlevel.obj
 0002:00003834       ??_C@_1M@CNKPNOEE@?$AAd?$AAe?$AA?9?$AAC?$AAH?$AA?$AA@ 1001b834     libucrt:lcidtoname_downlevel.obj
 0002:00003840       ??_C@_1M@LKMGMLKO@?$AAe?$AAn?$AA?9?$AAG?$AAB?$AA?$AA@ 1001b840     libucrt:lcidtoname_downlevel.obj
 0002:0000384c       ??_C@_1M@PGKJFFGL@?$AAe?$AAs?$AA?9?$AAM?$AAX?$AA?$AA@ 1001b84c     libucrt:lcidtoname_downlevel.obj
 0002:00003858       ??_C@_1M@DNNANBDC@?$AAf?$AAr?$AA?9?$AAB?$AAE?$AA?$AA@ 1001b858     libucrt:lcidtoname_downlevel.obj
 0002:00003864       ??_C@_1M@HLGMDFHM@?$AAi?$AAt?$AA?9?$AAC?$AAH?$AA?$AA@ 1001b864     libucrt:lcidtoname_downlevel.obj
 0002:00003870       ??_C@_1M@CLLBGJH@?$AAn?$AAl?$AA?9?$AAB?$AAE?$AA?$AA@ 1001b870     libucrt:lcidtoname_downlevel.obj
 0002:0000387c       ??_C@_1M@BODBOGLF@?$AAn?$AAn?$AA?9?$AAN?$AAO?$AA?$AA@ 1001b87c     libucrt:lcidtoname_downlevel.obj
 0002:00003888       ??_C@_1M@HFFAHKAD@?$AAp?$AAt?$AA?9?$AAP?$AAT?$AA?$AA@ 1001b888     libucrt:lcidtoname_downlevel.obj
 0002:00003894       ??_C@_1BG@LNOAKHIE@?$AAs?$AAr?$AA?9?$AAS?$AAP?$AA?9?$AAL?$AAa?$AAt?$AAn?$AA?$AA@ 1001b894     libucrt:lcidtoname_downlevel.obj
 0002:000038ac       ??_C@_1M@HBMHBGAK@?$AAs?$AAv?$AA?9?$AAF?$AAI?$AA?$AA@ 1001b8ac     libucrt:lcidtoname_downlevel.obj
 0002:000038b8       ??_C@_1BG@DGCJGJBE@?$AAa?$AAz?$AA?9?$AAA?$AAZ?$AA?9?$AAC?$AAy?$AAr?$AAl?$AA?$AA@ 1001b8b8     libucrt:lcidtoname_downlevel.obj
 0002:000038d0       ??_C@_1M@KEJDAAHB@?$AAs?$AAe?$AA?9?$AAS?$AAE?$AA?$AA@ 1001b8d0     libucrt:lcidtoname_downlevel.obj
 0002:000038dc       ??_C@_1M@HEIBJJAD@?$AAm?$AAs?$AA?9?$AAB?$AAN?$AA?$AA@ 1001b8dc     libucrt:lcidtoname_downlevel.obj
 0002:000038e8       ??_C@_1BG@PBGJMCEM@?$AAu?$AAz?$AA?9?$AAU?$AAZ?$AA?9?$AAC?$AAy?$AAr?$AAl?$AA?$AA@ 1001b8e8     libucrt:lcidtoname_downlevel.obj
 0002:00003900       ??_C@_1O@LAOBCMDF@?$AAq?$AAu?$AAz?$AA?9?$AAE?$AAC?$AA?$AA@ 1001b900     libucrt:lcidtoname_downlevel.obj
 0002:00003910       ??_C@_1M@POEEMAIO@?$AAa?$AAr?$AA?9?$AAE?$AAG?$AA?$AA@ 1001b910     libucrt:lcidtoname_downlevel.obj
 0002:0000391c       ??_C@_1M@EFAKDEDL@?$AAz?$AAh?$AA?9?$AAH?$AAK?$AA?$AA@ 1001b91c     libucrt:lcidtoname_downlevel.obj
 0002:00003928       ??_C@_1M@HKKIJHGI@?$AAd?$AAe?$AA?9?$AAA?$AAT?$AA?$AA@ 1001b928     libucrt:lcidtoname_downlevel.obj
 0002:00003934       ??_C@_1M@KBFBEHJF@?$AAe?$AAn?$AA?9?$AAA?$AAU?$AA?$AA@ 1001b934     libucrt:lcidtoname_downlevel.obj
 0002:00003940       ??_C@_1M@MNPLFAAH@?$AAe?$AAs?$AA?9?$AAE?$AAS?$AA?$AA@ 1001b940     libucrt:lcidtoname_downlevel.obj
 0002:0000394c       ??_C@_1M@HJOOJFMA@?$AAf?$AAr?$AA?9?$AAC?$AAA?$AA?$AA@ 1001b94c     libucrt:lcidtoname_downlevel.obj
 0002:00003958       ??_C@_1BG@JPOFPNAB@?$AAs?$AAr?$AA?9?$AAS?$AAP?$AA?9?$AAC?$AAy?$AAr?$AAl?$AA?$AA@ 1001b958     libucrt:lcidtoname_downlevel.obj
 0002:00003970       ??_C@_1M@LNFOCMOB@?$AAs?$AAe?$AA?9?$AAF?$AAI?$AA?$AA@ 1001b970     libucrt:lcidtoname_downlevel.obj
 0002:0000397c       ??_C@_1O@MGJBOAMB@?$AAq?$AAu?$AAz?$AA?9?$AAP?$AAE?$AA?$AA@ 1001b97c     libucrt:lcidtoname_downlevel.obj
 0002:0000398c       ??_C@_1M@GJINLBOK@?$AAa?$AAr?$AA?9?$AAL?$AAY?$AA?$AA@ 1001b98c     libucrt:lcidtoname_downlevel.obj
 0002:00003998       ??_C@_1M@GGMNHJNL@?$AAz?$AAh?$AA?9?$AAS?$AAG?$AA?$AA@ 1001b998     libucrt:lcidtoname_downlevel.obj
 0002:000039a4       ??_C@_1M@HOIKODND@?$AAd?$AAe?$AA?9?$AAL?$AAU?$AA?$AA@ 1001b9a4     libucrt:lcidtoname_downlevel.obj
 0002:000039b0       ??_C@_1M@DDOCCGFG@?$AAe?$AAn?$AA?9?$AAC?$AAA?$AA?$AA@ 1001b9b0     libucrt:lcidtoname_downlevel.obj
 0002:000039bc       ??_C@_1M@BNOEMJLF@?$AAe?$AAs?$AA?9?$AAG?$AAT?$AA?$AA@ 1001b9bc     libucrt:lcidtoname_downlevel.obj
 0002:000039c8       ??_C@_1M@EOGNKEK@?$AAf?$AAr?$AA?9?$AAC?$AAH?$AA?$AA@ 1001b9c8     libucrt:lcidtoname_downlevel.obj
 0002:000039d4       ??_C@_1M@FLIDJFHL@?$AAh?$AAr?$AA?9?$AAB?$AAA?$AA?$AA@ 1001b9d4     libucrt:lcidtoname_downlevel.obj
 0002:000039e0       ??_C@_1O@FMCELNAJ@?$AAs?$AAm?$AAj?$AA?9?$AAN?$AAO?$AA?$AA@ 1001b9e0     libucrt:lcidtoname_downlevel.obj
 0002:000039f0       ??_C@_1M@JHGLJMGJ@?$AAa?$AAr?$AA?9?$AAD?$AAZ?$AA?$AA@ 1001b9f0     libucrt:lcidtoname_downlevel.obj
 0002:000039fc       ??_C@_1M@JKKFDCNP@?$AAz?$AAh?$AA?9?$AAM?$AAO?$AA?$AA@ 1001b9fc     libucrt:lcidtoname_downlevel.obj
 0002:00003a08       ??_C@_1M@GEEFALPE@?$AAd?$AAe?$AA?9?$AAL?$AAI?$AA?$AA@ 1001ba08     libucrt:lcidtoname_downlevel.obj
 0002:00003a14       ??_C@_1M@IGEOFBG@?$AAe?$AAn?$AA?9?$AAN?$AAZ?$AA?$AA@ 1001ba14     libucrt:lcidtoname_downlevel.obj
 0002:00003a20       ??_C@_1M@KDBONEHP@?$AAe?$AAs?$AA?9?$AAC?$AAR?$AA?$AA@ 1001ba20     libucrt:lcidtoname_downlevel.obj
 0002:00003a2c       ??_C@_1M@FHMDOHNN@?$AAf?$AAr?$AA?9?$AAL?$AAU?$AA?$AA@ 1001ba2c     libucrt:lcidtoname_downlevel.obj
 0002:00003a38       ??_C@_1BG@NFKKMAFG@?$AAb?$AAs?$AA?9?$AAB?$AAA?$AA?9?$AAL?$AAa?$AAt?$AAn?$AA?$AA@ 1001ba38     libucrt:lcidtoname_downlevel.obj
 0002:00003a50       ??_C@_1O@IMNBEMCI@?$AAs?$AAm?$AAj?$AA?9?$AAS?$AAE?$AA?$AA@ 1001ba50     libucrt:lcidtoname_downlevel.obj
 0002:00003a60       ??_C@_1M@DHHMBNDP@?$AAa?$AAr?$AA?9?$AAM?$AAA?$AA?$AA@ 1001ba60     libucrt:lcidtoname_downlevel.obj
 0002:00003a6c       ??_C@_1M@BNBLJCGH@?$AAe?$AAn?$AA?9?$AAI?$AAE?$AA?$AA@ 1001ba6c     libucrt:lcidtoname_downlevel.obj
 0002:00003a78       ??_C@_1M@GEPAFMDL@?$AAe?$AAs?$AA?9?$AAP?$AAA?$AA?$AA@ 1001ba78     libucrt:lcidtoname_downlevel.obj
 0002:00003a84       ??_C@_1M@OJONDMDL@?$AAf?$AAr?$AA?9?$AAM?$AAC?$AA?$AA@ 1001ba84     libucrt:lcidtoname_downlevel.obj
 0002:00003a90       ??_C@_1BG@OBCNFJB@?$AAs?$AAr?$AA?9?$AAB?$AAA?$AA?9?$AAL?$AAa?$AAt?$AAn?$AA?$AA@ 1001ba90     libucrt:lcidtoname_downlevel.obj
 0002:00003aa8       ??_C@_1O@KEMEEGPO@?$AAs?$AAm?$AAa?$AA?9?$AAN?$AAO?$AA?$AA@ 1001baa8     libucrt:lcidtoname_downlevel.obj
 0002:00003ab8       ??_C@_1M@ELMGFODK@?$AAa?$AAr?$AA?9?$AAT?$AAN?$AA?$AA@ 1001bab8     libucrt:lcidtoname_downlevel.obj
 0002:00003ac4       ??_C@_1M@BHDLHFAF@?$AAe?$AAn?$AA?9?$AAZ?$AAA?$AA?$AA@ 1001bac4     libucrt:lcidtoname_downlevel.obj
 0002:00003ad0       ??_C@_1M@BMGIGLIF@?$AAe?$AAs?$AA?9?$AAD?$AAO?$AA?$AA@ 1001bad0     libucrt:lcidtoname_downlevel.obj
 0002:00003adc       ??_C@_1BG@CMBHIPBE@?$AAs?$AAr?$AA?9?$AAB?$AAA?$AA?9?$AAC?$AAy?$AAr?$AAl?$AA?$AA@ 1001badc     libucrt:lcidtoname_downlevel.obj
 0002:00003af4       ??_C@_1O@HEDBLHNP@?$AAs?$AAm?$AAa?$AA?9?$AAS?$AAE?$AA?$AA@ 1001baf4     libucrt:lcidtoname_downlevel.obj
 0002:00003b04       ??_C@_1M@DAGCADIM@?$AAa?$AAr?$AA?9?$AAO?$AAM?$AA?$AA@ 1001bb04     libucrt:lcidtoname_downlevel.obj
 0002:00003b10       ??_C@_1M@FODLMICG@?$AAe?$AAn?$AA?9?$AAJ?$AAM?$AA?$AA@ 1001bb10     libucrt:lcidtoname_downlevel.obj
 0002:00003b1c       ??_C@_1M@DNMLCIHB@?$AAe?$AAs?$AA?9?$AAV?$AAE?$AA?$AA@ 1001bb1c     libucrt:lcidtoname_downlevel.obj
 0002:00003b28       ??_C@_1O@EOKHMKJK@?$AAs?$AAm?$AAs?$AA?9?$AAF?$AAI?$AA?$AA@ 1001bb28     libucrt:lcidtoname_downlevel.obj
 0002:00003b38       ??_C@_1M@CAFJMKOF@?$AAa?$AAr?$AA?9?$AAY?$AAE?$AA?$AA@ 1001bb38     libucrt:lcidtoname_downlevel.obj
 0002:00003b44       ??_C@_1M@CBFHIJLI@?$AAe?$AAn?$AA?9?$AAC?$AAB?$AA?$AA@ 1001bb44     libucrt:lcidtoname_downlevel.obj
 0002:00003b50       ??_C@_1M@BGNFLDN@?$AAe?$AAs?$AA?9?$AAC?$AAO?$AA?$AA@ 1001bb50     libucrt:lcidtoname_downlevel.obj
 0002:00003b5c       ??_C@_1O@JMPHMAMC@?$AAs?$AAm?$AAn?$AA?9?$AAF?$AAI?$AA?$AA@ 1001bb5c     libucrt:lcidtoname_downlevel.obj
 0002:00003b6c       ??_C@_1M@JLANABKE@?$AAa?$AAr?$AA?9?$AAS?$AAY?$AA?$AA@ 1001bb6c     libucrt:lcidtoname_downlevel.obj
 0002:00003b78       ??_C@_1M@HPKGCFGN@?$AAe?$AAn?$AA?9?$AAB?$AAZ?$AA?$AA@ 1001bb78     libucrt:lcidtoname_downlevel.obj
 0002:00003b84       ??_C@_1M@OLJCMLGM@?$AAe?$AAs?$AA?9?$AAP?$AAE?$AA?$AA@ 1001bb84     libucrt:lcidtoname_downlevel.obj
 0002:00003b90       ??_C@_1M@MKKGFKLE@?$AAa?$AAr?$AA?9?$AAJ?$AAO?$AA?$AA@ 1001bb90     libucrt:lcidtoname_downlevel.obj
 0002:00003b9c       ??_C@_1M@EKPGLDNI@?$AAe?$AAn?$AA?9?$AAT?$AAT?$AA?$AA@ 1001bb9c     libucrt:lcidtoname_downlevel.obj
 0002:00003ba8       ??_C@_1M@OONGHFHE@?$AAe?$AAs?$AA?9?$AAA?$AAR?$AA?$AA@ 1001bba8     libucrt:lcidtoname_downlevel.obj
 0002:00003bb4       ??_C@_1M@OOJFGBHE@?$AAa?$AAr?$AA?9?$AAL?$AAB?$AA?$AA@ 1001bbb4     libucrt:lcidtoname_downlevel.obj
 0002:00003bc0       ??_C@_1M@GCEJHNEG@?$AAe?$AAn?$AA?9?$AAZ?$AAW?$AA?$AA@ 1001bbc0     libucrt:lcidtoname_downlevel.obj
 0002:00003bcc       ??_C@_1M@JNOCAHJI@?$AAe?$AAs?$AA?9?$AAE?$AAC?$AA?$AA@ 1001bbcc     libucrt:lcidtoname_downlevel.obj
 0002:00003bd8       ??_C@_1M@JEFHPGGB@?$AAa?$AAr?$AA?9?$AAK?$AAW?$AA?$AA@ 1001bbd8     libucrt:lcidtoname_downlevel.obj
 0002:00003be4       ??_C@_1M@MLKIBJOJ@?$AAe?$AAn?$AA?9?$AAP?$AAH?$AA?$AA@ 1001bbe4     libucrt:lcidtoname_downlevel.obj
 0002:00003bf0       ??_C@_1M@BDNIPEND@?$AAe?$AAs?$AA?9?$AAC?$AAL?$AA?$AA@ 1001bbf0     libucrt:lcidtoname_downlevel.obj
 0002:00003bfc       ??_C@_1M@MPNMEKBD@?$AAa?$AAr?$AA?9?$AAA?$AAE?$AA?$AA@ 1001bbfc     libucrt:lcidtoname_downlevel.obj
 0002:00003c08       ??_C@_1M@KBJALCPI@?$AAe?$AAs?$AA?9?$AAU?$AAY?$AA?$AA@ 1001bc08     libucrt:lcidtoname_downlevel.obj
 0002:00003c14       ??_C@_1M@LLCCOAGA@?$AAa?$AAr?$AA?9?$AAB?$AAH?$AA?$AA@ 1001bc14     libucrt:lcidtoname_downlevel.obj
 0002:00003c20       ??_C@_1M@PBFNCDEL@?$AAe?$AAs?$AA?9?$AAP?$AAY?$AA?$AA@ 1001bc20     libucrt:lcidtoname_downlevel.obj
 0002:00003c2c       ??_C@_1M@EDGINPNP@?$AAa?$AAr?$AA?9?$AAQ?$AAA?$AA?$AA@ 1001bc2c     libucrt:lcidtoname_downlevel.obj
 0002:00003c38       ??_C@_1M@MKDBIIJI@?$AAe?$AAs?$AA?9?$AAB?$AAO?$AA?$AA@ 1001bc38     libucrt:lcidtoname_downlevel.obj
 0002:00003c44       ??_C@_1M@CPKKEBLD@?$AAe?$AAs?$AA?9?$AAS?$AAV?$AA?$AA@ 1001bc44     libucrt:lcidtoname_downlevel.obj
 0002:00003c50       ??_C@_1M@NDBGMMJL@?$AAe?$AAs?$AA?9?$AAH?$AAN?$AA?$AA@ 1001bc50     libucrt:lcidtoname_downlevel.obj
 0002:00003c5c       ??_C@_1M@JIJIBHDP@?$AAe?$AAs?$AA?9?$AAN?$AAI?$AA?$AA@ 1001bc5c     libucrt:lcidtoname_downlevel.obj
 0002:00003c68       ??_C@_1M@CGFMKEEK@?$AAe?$AAs?$AA?9?$AAP?$AAR?$AA?$AA@ 1001bc68     libucrt:lcidtoname_downlevel.obj
 0002:00003c74       ??_C@_1O@ICJHKIIK@?$AAz?$AAh?$AA?9?$AAC?$AAH?$AAT?$AA?$AA@ 1001bc74     libucrt:lcidtoname_downlevel.obj
 0002:00003c84       ??_C@_15CLNEJCE@?$AAs?$AAr?$AA?$AA@ 1001bc84     libucrt:lcidtoname_downlevel.obj
 0002:000043b0       ??_C@_1M@KAHEKEIG@?$AAa?$AAf?$AA?9?$AAz?$AAa?$AA?$AA@ 1001c3b0     libucrt:lcidtoname_downlevel.obj
 0002:000043bc       ??_C@_1M@GIECOABL@?$AAa?$AAr?$AA?9?$AAa?$AAe?$AA?$AA@ 1001c3bc     libucrt:lcidtoname_downlevel.obj
 0002:000043c8       ??_C@_1M@BMLMEKGI@?$AAa?$AAr?$AA?9?$AAb?$AAh?$AA?$AA@ 1001c3c8     libucrt:lcidtoname_downlevel.obj
 0002:000043d4       ??_C@_1M@DAPFDGGB@?$AAa?$AAr?$AA?9?$AAd?$AAz?$AA?$AA@ 1001c3d4     libucrt:lcidtoname_downlevel.obj
 0002:000043e0       ??_C@_1M@FJNKGKIG@?$AAa?$AAr?$AA?9?$AAe?$AAg?$AA?$AA@ 1001c3e0     libucrt:lcidtoname_downlevel.obj
 0002:000043ec       ??_C@_1M@FLGKKCLO@?$AAa?$AAr?$AA?9?$AAi?$AAq?$AA?$AA@ 1001c3ec     libucrt:lcidtoname_downlevel.obj
 0002:000043f8       ??_C@_1M@GNDIPALM@?$AAa?$AAr?$AA?9?$AAj?$AAo?$AA?$AA@ 1001c3f8     libucrt:lcidtoname_downlevel.obj
 0002:00004404       ??_C@_1M@DDMJFMGJ@?$AAa?$AAr?$AA?9?$AAk?$AAw?$AA?$AA@ 1001c404     libucrt:lcidtoname_downlevel.obj
 0002:00004410       ??_C@_1M@EJALMLHM@?$AAa?$AAr?$AA?9?$AAl?$AAb?$AA?$AA@ 1001c410     libucrt:lcidtoname_downlevel.obj
 0002:0000441c       ??_C@_1M@MOBDBLOC@?$AAa?$AAr?$AA?9?$AAl?$AAy?$AA?$AA@ 1001c41c     libucrt:lcidtoname_downlevel.obj
 0002:00004428       ??_C@_1M@JAOCLHDH@?$AAa?$AAr?$AA?9?$AAm?$AAa?$AA?$AA@ 1001c428     libucrt:lcidtoname_downlevel.obj
 0002:00004434       ??_C@_1M@JHPMKJIE@?$AAa?$AAr?$AA?9?$AAo?$AAm?$AA?$AA@ 1001c434     libucrt:lcidtoname_downlevel.obj
 0002:00004440       ??_C@_1M@OEPGHFNH@?$AAa?$AAr?$AA?9?$AAq?$AAa?$AA?$AA@ 1001c440     libucrt:lcidtoname_downlevel.obj
 0002:0000444c       ??_C@_1M@KJDONENM@?$AAa?$AAr?$AA?9?$AAs?$AAa?$AA?$AA@ 1001c44c     libucrt:lcidtoname_downlevel.obj
 0002:00004458       ??_C@_1M@DMJDKLKM@?$AAa?$AAr?$AA?9?$AAs?$AAy?$AA?$AA@ 1001c458     libucrt:lcidtoname_downlevel.obj
 0002:00004464       ??_C@_1M@OMFIPEDC@?$AAa?$AAr?$AA?9?$AAt?$AAn?$AA?$AA@ 1001c464     libucrt:lcidtoname_downlevel.obj
 0002:00004470       ??_C@_1M@IHMHGAON@?$AAa?$AAr?$AA?9?$AAy?$AAe?$AA?$AA@ 1001c470     libucrt:lcidtoname_downlevel.obj
 0002:0000447c       ??_C@_1BG@KDCPGJGB@?$AAa?$AAz?$AA?9?$AAa?$AAz?$AA?9?$AAc?$AAy?$AAr?$AAl?$AA?$AA@ 1001c47c     libucrt:lcidtoname_downlevel.obj
 0002:00004494       ??_C@_1BG@IBCKDDOE@?$AAa?$AAz?$AA?9?$AAa?$AAz?$AA?9?$AAl?$AAa?$AAt?$AAn?$AA?$AA@ 1001c494     libucrt:lcidtoname_downlevel.obj
 0002:000044ac       ??_C@_1M@EGPFDCPD@?$AAb?$AAe?$AA?9?$AAb?$AAy?$AA?$AA@ 1001c4ac     libucrt:lcidtoname_downlevel.obj
 0002:000044b8       ??_C@_1M@PCMGMCGC@?$AAb?$AAg?$AA?9?$AAb?$AAg?$AA?$AA@ 1001c4b8     libucrt:lcidtoname_downlevel.obj
 0002:000044c4       ??_C@_1M@BJBMFGOB@?$AAb?$AAn?$AA?9?$AAi?$AAn?$AA?$AA@ 1001c4c4     libucrt:lcidtoname_downlevel.obj
 0002:000044d0       ??_C@_1BG@EAKMMACD@?$AAb?$AAs?$AA?9?$AAb?$AAa?$AA?9?$AAl?$AAa?$AAt?$AAn?$AA?$AA@ 1001c4d0     libucrt:lcidtoname_downlevel.obj
 0002:000044e8       ??_C@_1M@KGADAODK@?$AAc?$AAa?$AA?9?$AAe?$AAs?$AA?$AA@ 1001c4e8     libucrt:lcidtoname_downlevel.obj
 0002:000044f4       ??_C@_1M@COAJPDHI@?$AAc?$AAs?$AA?9?$AAc?$AAz?$AA?$AA@ 1001c4f4     libucrt:lcidtoname_downlevel.obj
 0002:00004500       ??_C@_1M@DHBHFONH@?$AAc?$AAy?$AA?9?$AAg?$AAb?$AA?$AA@ 1001c500     libucrt:lcidtoname_downlevel.obj
 0002:0000450c       ??_C@_1M@IMGKELGA@?$AAd?$AAa?$AA?9?$AAd?$AAk?$AA?$AA@ 1001c50c     libucrt:lcidtoname_downlevel.obj
 0002:00004518       ??_C@_1M@NNDGDNGA@?$AAd?$AAe?$AA?9?$AAa?$AAt?$AA?$AA@ 1001c518     libucrt:lcidtoname_downlevel.obj
 0002:00004524       ??_C@_1M@IKDBHEEM@?$AAd?$AAe?$AA?9?$AAc?$AAh?$AA?$AA@ 1001c524     libucrt:lcidtoname_downlevel.obj
 0002:00004530       ??_C@_1M@GFFOJMCJ@?$AAd?$AAe?$AA?9?$AAd?$AAe?$AA?$AA@ 1001c530     libucrt:lcidtoname_downlevel.obj
 0002:0000453c       ??_C@_1M@MDNLKBPM@?$AAd?$AAe?$AA?9?$AAl?$AAi?$AA?$AA@ 1001c53c     libucrt:lcidtoname_downlevel.obj
 0002:00004548       ??_C@_1M@NJBEEJNL@?$AAd?$AAe?$AA?9?$AAl?$AAu?$AA?$AA@ 1001c548     libucrt:lcidtoname_downlevel.obj
 0002:00004554       ??_C@_1O@GNNELBAP@?$AAd?$AAi?$AAv?$AA?9?$AAm?$AAv?$AA?$AA@ 1001c554     libucrt:lcidtoname_downlevel.obj
 0002:00004564       ??_C@_1M@EJLEOGAE@?$AAe?$AAl?$AA?9?$AAg?$AAr?$AA?$AA@ 1001c564     libucrt:lcidtoname_downlevel.obj
 0002:00004570       ??_C@_1M@GMPONJN@?$AAe?$AAn?$AA?9?$AAa?$AAu?$AA?$AA@ 1001c570     libucrt:lcidtoname_downlevel.obj
 0002:0000457c       ??_C@_1M@NIDIIPGF@?$AAe?$AAn?$AA?9?$AAb?$AAz?$AA?$AA@ 1001c57c     libucrt:lcidtoname_downlevel.obj
 0002:00004588       ??_C@_1M@JEHMIMFO@?$AAe?$AAn?$AA?9?$AAc?$AAa?$AA?$AA@ 1001c588     libucrt:lcidtoname_downlevel.obj
 0002:00004594       ??_C@_1M@IGMJCDLA@?$AAe?$AAn?$AA?9?$AAc?$AAb?$AA?$AA@ 1001c594     libucrt:lcidtoname_downlevel.obj
 0002:000045a0       ??_C@_1M@BNFIGBKG@?$AAe?$AAn?$AA?9?$AAg?$AAb?$AA?$AA@ 1001c5a0     libucrt:lcidtoname_downlevel.obj
 0002:000045ac       ??_C@_1M@LKIFDIGP@?$AAe?$AAn?$AA?9?$AAi?$AAe?$AA?$AA@ 1001c5ac     libucrt:lcidtoname_downlevel.obj
 0002:000045b8       ??_C@_1M@PJKFGCCO@?$AAe?$AAn?$AA?9?$AAj?$AAm?$AA?$AA@ 1001c5b8     libucrt:lcidtoname_downlevel.obj
 0002:000045c4       ??_C@_1M@KPPKEPBO@?$AAe?$AAn?$AA?9?$AAn?$AAz?$AA?$AA@ 1001c5c4     libucrt:lcidtoname_downlevel.obj
 0002:000045d0       ??_C@_1M@GMDGLDOB@?$AAe?$AAn?$AA?9?$AAp?$AAh?$AA?$AA@ 1001c5d0     libucrt:lcidtoname_downlevel.obj
 0002:000045dc       ??_C@_1M@ONGIBJNA@?$AAe?$AAn?$AA?9?$AAt?$AAt?$AA?$AA@ 1001c5dc     libucrt:lcidtoname_downlevel.obj
 0002:000045e8       ??_C@_1M@LLODPCMM@?$AAe?$AAn?$AA?9?$AAu?$AAs?$AA?$AA@ 1001c5e8     libucrt:lcidtoname_downlevel.obj
 0002:000045f4       ??_C@_1M@LAKFNPAN@?$AAe?$AAn?$AA?9?$AAz?$AAa?$AA?$AA@ 1001c5f4     libucrt:lcidtoname_downlevel.obj
 0002:00004600       ??_C@_1M@MFNHNHEO@?$AAe?$AAn?$AA?9?$AAz?$AAw?$AA?$AA@ 1001c600     libucrt:lcidtoname_downlevel.obj
 0002:0000460c       ??_C@_1M@EJEINPHM@?$AAe?$AAs?$AA?9?$AAa?$AAr?$AA?$AA@ 1001c60c     libucrt:lcidtoname_downlevel.obj
 0002:00004618       ??_C@_1M@GNKPCCJA@?$AAe?$AAs?$AA?9?$AAb?$AAo?$AA?$AA@ 1001c618     libucrt:lcidtoname_downlevel.obj
 0002:00004624       ??_C@_1M@LEEGFONL@?$AAe?$AAs?$AA?9?$AAc?$AAl?$AA?$AA@ 1001c624     libucrt:lcidtoname_downlevel.obj
 0002:00004630       ??_C@_1M@KGPDPBDF@?$AAe?$AAs?$AA?9?$AAc?$AAo?$AA?$AA@ 1001c630     libucrt:lcidtoname_downlevel.obj
 0002:0000463c       ??_C@_1M@EIAHOHH@?$AAe?$AAs?$AA?9?$AAc?$AAr?$AA?$AA@ 1001c63c     libucrt:lcidtoname_downlevel.obj
 0002:00004648       ??_C@_1M@LLPGMBIN@?$AAe?$AAs?$AA?9?$AAd?$AAo?$AA?$AA@ 1001c648     libucrt:lcidtoname_downlevel.obj
 0002:00004654       ??_C@_1M@DKHMKNJA@?$AAe?$AAs?$AA?9?$AAe?$AAc?$AA?$AA@ 1001c654     libucrt:lcidtoname_downlevel.obj
 0002:00004660       ??_C@_1M@GKGFPKAP@?$AAe?$AAs?$AA?9?$AAe?$AAs?$AA?$AA@ 1001c660     libucrt:lcidtoname_downlevel.obj
 0002:0000466c       ??_C@_1M@LKHKGDLN@?$AAe?$AAs?$AA?9?$AAg?$AAt?$AA?$AA@ 1001c66c     libucrt:lcidtoname_downlevel.obj
 0002:00004678       ??_C@_1M@HEIIGGJD@?$AAe?$AAs?$AA?9?$AAh?$AAn?$AA?$AA@ 1001c678     libucrt:lcidtoname_downlevel.obj
 0002:00004684       ??_C@_1M@FBDHPPGD@?$AAe?$AAs?$AA?9?$AAm?$AAx?$AA?$AA@ 1001c684     libucrt:lcidtoname_downlevel.obj
 0002:00004690       ??_C@_1M@DPAGLNDH@?$AAe?$AAs?$AA?9?$AAn?$AAi?$AA?$AA@ 1001c690     libucrt:lcidtoname_downlevel.obj
 0002:0000469c       ??_C@_1M@MDGOPGDD@?$AAe?$AAs?$AA?9?$AAp?$AAa?$AA?$AA@ 1001c69c     libucrt:lcidtoname_downlevel.obj
 0002:000046a8       ??_C@_1M@EMAMGBGE@?$AAe?$AAs?$AA?9?$AAp?$AAe?$AA?$AA@ 1001c6a8     libucrt:lcidtoname_downlevel.obj
 0002:000046b4       ??_C@_1M@IBMCAOEC@?$AAe?$AAs?$AA?9?$AAp?$AAr?$AA?$AA@ 1001c6b4     libucrt:lcidtoname_downlevel.obj
 0002:000046c0       ??_C@_1M@FGMDIJED@?$AAe?$AAs?$AA?9?$AAp?$AAy?$AA?$AA@ 1001c6c0     libucrt:lcidtoname_downlevel.obj
 0002:000046cc       ??_C@_1M@IIDEOLLL@?$AAe?$AAs?$AA?9?$AAs?$AAv?$AA?$AA@ 1001c6cc     libucrt:lcidtoname_downlevel.obj
 0002:000046d8       ??_C@_1M@GAOBIPA@?$AAe?$AAs?$AA?9?$AAu?$AAy?$AA?$AA@ 1001c6d8     libucrt:lcidtoname_downlevel.obj
 0002:000046e4       ??_C@_1M@JKFFICHJ@?$AAe?$AAs?$AA?9?$AAv?$AAe?$AA?$AA@ 1001c6e4     libucrt:lcidtoname_downlevel.obj
 0002:000046f0       ??_C@_1M@PNMLOJDF@?$AAe?$AAt?$AA?9?$AAe?$AAe?$AA?$AA@ 1001c6f0     libucrt:lcidtoname_downlevel.obj
 0002:000046fc       ??_C@_1M@GHHLIKEI@?$AAe?$AAu?$AA?9?$AAe?$AAs?$AA?$AA@ 1001c6fc     libucrt:lcidtoname_downlevel.obj
 0002:00004708       ??_C@_1M@PBNONODE@?$AAf?$AAa?$AA?9?$AAi?$AAr?$AA?$AA@ 1001c708     libucrt:lcidtoname_downlevel.obj
 0002:00004714       ??_C@_1M@JEEHPMIL@?$AAf?$AAi?$AA?9?$AAf?$AAi?$AA?$AA@ 1001c714     libucrt:lcidtoname_downlevel.obj
 0002:00004720       ??_C@_1M@LMDCNDBA@?$AAf?$AAo?$AA?9?$AAf?$AAo?$AA?$AA@ 1001c720     libucrt:lcidtoname_downlevel.obj
 0002:0000472c       ??_C@_1M@JKEOHLDK@?$AAf?$AAr?$AA?9?$AAb?$AAe?$AA?$AA@ 1001c72c     libucrt:lcidtoname_downlevel.obj
 0002:00004738       ??_C@_1M@NOHADPMI@?$AAf?$AAr?$AA?9?$AAc?$AAa?$AA?$AA@ 1001c738     libucrt:lcidtoname_downlevel.obj
 0002:00004744       ??_C@_1M@KDHIHAEC@?$AAf?$AAr?$AA?9?$AAc?$AAh?$AA?$AA@ 1001c744     libucrt:lcidtoname_downlevel.obj
 0002:00004750       ??_C@_1M@MMBBFGAK@?$AAf?$AAr?$AA?9?$AAf?$AAr?$AA?$AA@ 1001c750     libucrt:lcidtoname_downlevel.obj
 0002:0000475c       ??_C@_1M@PAFNENNF@?$AAf?$AAr?$AA?9?$AAl?$AAu?$AA?$AA@ 1001c75c     libucrt:lcidtoname_downlevel.obj
 0002:00004768       ??_C@_1M@EOHDJGDD@?$AAf?$AAr?$AA?9?$AAm?$AAc?$AA?$AA@ 1001c768     libucrt:lcidtoname_downlevel.obj
 0002:00004774       ??_C@_1M@FAPLLOPF@?$AAg?$AAl?$AA?9?$AAe?$AAs?$AA?$AA@ 1001c774     libucrt:lcidtoname_downlevel.obj
 0002:00004780       ??_C@_1M@FOPBFLOO@?$AAg?$AAu?$AA?9?$AAi?$AAn?$AA?$AA@ 1001c780     libucrt:lcidtoname_downlevel.obj
 0002:0000478c       ??_C@_1M@KBMCINPM@?$AAh?$AAe?$AA?9?$AAi?$AAl?$AA?$AA@ 1001c78c     libucrt:lcidtoname_downlevel.obj
 0002:00004798       ??_C@_1M@BBPHKFPJ@?$AAh?$AAi?$AA?9?$AAi?$AAn?$AA?$AA@ 1001c798     libucrt:lcidtoname_downlevel.obj
 0002:000047a4       ??_C@_1M@PMBNDPHD@?$AAh?$AAr?$AA?9?$AAb?$AAa?$AA?$AA@ 1001c7a4     libucrt:lcidtoname_downlevel.obj
 0002:000047b0       ??_C@_1M@BPCKOEGE@?$AAh?$AAr?$AA?9?$AAh?$AAr?$AA?$AA@ 1001c7b0     libucrt:lcidtoname_downlevel.obj
 0002:000047bc       ??_C@_1M@GACBMHKE@?$AAh?$AAu?$AA?9?$AAh?$AAu?$AA?$AA@ 1001c7bc     libucrt:lcidtoname_downlevel.obj
 0002:000047c8       ??_C@_1M@MILPAJJC@?$AAh?$AAy?$AA?9?$AAa?$AAm?$AA?$AA@ 1001c7c8     libucrt:lcidtoname_downlevel.obj
 0002:000047d4       ??_C@_1M@BABBICEC@?$AAi?$AAd?$AA?9?$AAi?$AAd?$AA?$AA@ 1001c7d4     libucrt:lcidtoname_downlevel.obj
 0002:000047e0       ??_C@_1M@BIKNHHPF@?$AAi?$AAs?$AA?9?$AAi?$AAs?$AA?$AA@ 1001c7e0     libucrt:lcidtoname_downlevel.obj
 0002:000047ec       ??_C@_1M@NMPCJPHE@?$AAi?$AAt?$AA?9?$AAc?$AAh?$AA?$AA@ 1001c7ec     libucrt:lcidtoname_downlevel.obj
 0002:000047f8       ??_C@_1M@GHKGFEDF@?$AAi?$AAt?$AA?9?$AAi?$AAt?$AA?$AA@ 1001c7f8     libucrt:lcidtoname_downlevel.obj
 0002:00004804       ??_C@_1M@NIEJCJJA@?$AAj?$AAa?$AA?9?$AAj?$AAp?$AA?$AA@ 1001c804     libucrt:lcidtoname_downlevel.obj
 0002:00004810       ??_C@_1M@JILFNBIM@?$AAk?$AAa?$AA?9?$AAg?$AAe?$AA?$AA@ 1001c810     libucrt:lcidtoname_downlevel.obj
 0002:0000481c       ??_C@_1M@PACPMGPH@?$AAk?$AAk?$AA?9?$AAk?$AAz?$AA?$AA@ 1001c81c     libucrt:lcidtoname_downlevel.obj
 0002:00004828       ??_C@_1M@IELFGMHA@?$AAk?$AAn?$AA?9?$AAi?$AAn?$AA?$AA@ 1001c828     libucrt:lcidtoname_downlevel.obj
 0002:00004834       ??_C@_1O@IBBJHCH@?$AAk?$AAo?$AAk?$AA?9?$AAi?$AAn?$AA?$AA@ 1001c834     libucrt:lcidtoname_downlevel.obj
 0002:00004844       ??_C@_1M@DMHAEOGC@?$AAk?$AAo?$AA?9?$AAk?$AAr?$AA?$AA@ 1001c844     libucrt:lcidtoname_downlevel.obj
 0002:00004850       ??_C@_1M@HBAHBIGA@?$AAk?$AAy?$AA?9?$AAk?$AAg?$AA?$AA@ 1001c850     libucrt:lcidtoname_downlevel.obj
 0002:0000485c       ??_C@_1M@KPMILCJG@?$AAl?$AAt?$AA?9?$AAl?$AAt?$AA?$AA@ 1001c85c     libucrt:lcidtoname_downlevel.obj
 0002:00004868       ??_C@_1M@BDEKKCA@?$AAl?$AAv?$AA?9?$AAl?$AAv?$AA?$AA@ 1001c868     libucrt:lcidtoname_downlevel.obj
 0002:00004874       ??_C@_1M@ELCKCCJJ@?$AAm?$AAi?$AA?9?$AAn?$AAz?$AA?$AA@ 1001c874     libucrt:lcidtoname_downlevel.obj
 0002:00004880       ??_C@_1M@CBOOLAPA@?$AAm?$AAk?$AA?9?$AAm?$AAk?$AA?$AA@ 1001c880     libucrt:lcidtoname_downlevel.obj
 0002:0000488c       ??_C@_1M@GPHNBJKN@?$AAm?$AAl?$AA?9?$AAi?$AAn?$AA?$AA@ 1001c88c     libucrt:lcidtoname_downlevel.obj
 0002:00004898       ??_C@_1M@PABJILIG@?$AAm?$AAn?$AA?9?$AAm?$AAn?$AA?$AA@ 1001c898     libucrt:lcidtoname_downlevel.obj
 0002:000048a4       ??_C@_1M@FGBKKIPG@?$AAm?$AAr?$AA?9?$AAi?$AAn?$AA?$AA@ 1001c8a4     libucrt:lcidtoname_downlevel.obj
 0002:000048b0       ??_C@_1M@NDBPDDAL@?$AAm?$AAs?$AA?9?$AAb?$AAn?$AA?$AA@ 1001c8b0     libucrt:lcidtoname_downlevel.obj
 0002:000048bc       ??_C@_1M@OPIHOOPI@?$AAm?$AAs?$AA?9?$AAm?$AAy?$AA?$AA@ 1001c8bc     libucrt:lcidtoname_downlevel.obj
 0002:000048c8       ??_C@_1M@PPDBCNFM@?$AAm?$AAt?$AA?9?$AAm?$AAt?$AA?$AA@ 1001c8c8     libucrt:lcidtoname_downlevel.obj
 0002:000048d4       ??_C@_1M@KDJDKMDD@?$AAn?$AAb?$AA?9?$AAn?$AAo?$AA?$AA@ 1001c8d4     libucrt:lcidtoname_downlevel.obj
 0002:000048e0       ??_C@_1M@KFCFLMJP@?$AAn?$AAl?$AA?9?$AAb?$AAe?$AA?$AA@ 1001c8e0     libucrt:lcidtoname_downlevel.obj
 0002:000048ec       ??_C@_1M@KPOPDDGO@?$AAn?$AAl?$AA?9?$AAn?$AAl?$AA?$AA@ 1001c8ec     libucrt:lcidtoname_downlevel.obj
 0002:000048f8       ??_C@_1M@LJKPEMLN@?$AAn?$AAn?$AA?9?$AAn?$AAo?$AA?$AA@ 1001c8f8     libucrt:lcidtoname_downlevel.obj
 0002:00004904       ??_C@_1M@BDGHHBFL@?$AAn?$AAs?$AA?9?$AAz?$AAa?$AA?$AA@ 1001c904     libucrt:lcidtoname_downlevel.obj
 0002:00004910       ??_C@_1M@IDEHOAP@?$AAp?$AAa?$AA?9?$AAi?$AAn?$AA?$AA@ 1001c910     libucrt:lcidtoname_downlevel.obj
 0002:0000491c       ??_C@_1M@HDBKGOGH@?$AAp?$AAl?$AA?9?$AAp?$AAl?$AA?$AA@ 1001c91c     libucrt:lcidtoname_downlevel.obj
 0002:00004928       ??_C@_1M@LJLLCMEH@?$AAp?$AAt?$AA?9?$AAb?$AAr?$AA?$AA@ 1001c928     libucrt:lcidtoname_downlevel.obj
 0002:00004934       ??_C@_1M@NCMONAAL@?$AAp?$AAt?$AA?9?$AAp?$AAt?$AA?$AA@ 1001c934     libucrt:lcidtoname_downlevel.obj
 0002:00004940       ??_C@_1O@EAKMAJDN@?$AAq?$AAu?$AAz?$AA?9?$AAb?$AAo?$AA?$AA@ 1001c940     libucrt:lcidtoname_downlevel.obj
 0002:00004950       ??_C@_1O@BHHPIGDN@?$AAq?$AAu?$AAz?$AA?9?$AAe?$AAc?$AA?$AA@ 1001c950     libucrt:lcidtoname_downlevel.obj
 0002:00004960       ??_C@_1O@GBAPEKMJ@?$AAq?$AAu?$AAz?$AA?9?$AAp?$AAe?$AA?$AA@ 1001c960     libucrt:lcidtoname_downlevel.obj
 0002:00004970       ??_C@_1M@CLGLEFBO@?$AAr?$AAo?$AA?9?$AAr?$AAo?$AA?$AA@ 1001c970     libucrt:lcidtoname_downlevel.obj
 0002:0000497c       ??_C@_1M@CEEDODME@?$AAr?$AAu?$AA?9?$AAr?$AAu?$AA?$AA@ 1001c97c     libucrt:lcidtoname_downlevel.obj
 0002:00004988       ??_C@_1M@HPKKKMPP@?$AAs?$AAa?$AA?9?$AAi?$AAn?$AA?$AA@ 1001c988     libucrt:lcidtoname_downlevel.obj
 0002:00004994       ??_C@_1M@BKMAIGOJ@?$AAs?$AAe?$AA?9?$AAf?$AAi?$AA?$AA@ 1001c994     libucrt:lcidtoname_downlevel.obj
 0002:000049a0       ??_C@_1M@NDPIFLFI@?$AAs?$AAe?$AA?9?$AAn?$AAo?$AA?$AA@ 1001c9a0     libucrt:lcidtoname_downlevel.obj
 0002:000049ac       ??_C@_1M@DANKKHJ@?$AAs?$AAe?$AA?9?$AAs?$AAe?$AA?$AA@ 1001c9ac     libucrt:lcidtoname_downlevel.obj
 0002:000049b8       ??_C@_1M@PNBLONPJ@?$AAs?$AAk?$AA?9?$AAs?$AAk?$AA?$AA@ 1001c9b8     libucrt:lcidtoname_downlevel.obj
 0002:000049c4       ??_C@_1M@LFMODOAL@?$AAs?$AAl?$AA?9?$AAs?$AAi?$AA?$AA@ 1001c9c4     libucrt:lcidtoname_downlevel.obj
 0002:000049d0       ??_C@_1O@DFKOMPG@?$AAs?$AAm?$AAa?$AA?9?$AAn?$AAo?$AA?$AA@ 1001c9d0     libucrt:lcidtoname_downlevel.obj
 0002:000049e0       ??_C@_1O@NDKPBNNH@?$AAs?$AAm?$AAa?$AA?9?$AAs?$AAe?$AA?$AA@ 1001c9e0     libucrt:lcidtoname_downlevel.obj
 0002:000049f0       ??_C@_1O@PLLKBHAB@?$AAs?$AAm?$AAj?$AA?9?$AAn?$AAo?$AA?$AA@ 1001c9f0     libucrt:lcidtoname_downlevel.obj
 0002:00004a00       ??_C@_1O@CLEPOGCA@?$AAs?$AAm?$AAj?$AA?9?$AAs?$AAe?$AA?$AA@ 1001ca00     libucrt:lcidtoname_downlevel.obj
 0002:00004a10       ??_C@_1O@DLGJGKMK@?$AAs?$AAm?$AAn?$AA?9?$AAf?$AAi?$AA?$AA@ 1001ca10     libucrt:lcidtoname_downlevel.obj
 0002:00004a20       ??_C@_1O@OJDJGAJC@?$AAs?$AAm?$AAs?$AA?9?$AAf?$AAi?$AA?$AA@ 1001ca20     libucrt:lcidtoname_downlevel.obj
 0002:00004a30       ??_C@_1M@BOFOGHPB@?$AAs?$AAq?$AA?9?$AAa?$AAl?$AA?$AA@ 1001ca30     libucrt:lcidtoname_downlevel.obj
 0002:00004a3c       ??_C@_1BG@LJBBIPGB@?$AAs?$AAr?$AA?9?$AAb?$AAa?$AA?9?$AAc?$AAy?$AAr?$AAl?$AA?$AA@ 1001ca3c     libucrt:lcidtoname_downlevel.obj
 0002:00004a54       ??_C@_1BG@JLBENFOE@?$AAs?$AAr?$AA?9?$AAb?$AAa?$AA?9?$AAl?$AAa?$AAt?$AAn?$AA?$AA@ 1001ca54     libucrt:lcidtoname_downlevel.obj
 0002:00004a6c       ??_C@_1BG@KODPNHE@?$AAs?$AAr?$AA?9?$AAs?$AAp?$AA?9?$AAc?$AAy?$AAr?$AAl?$AA?$AA@ 1001ca6c     libucrt:lcidtoname_downlevel.obj
 0002:00004a84       ??_C@_1BG@CIOGKHPB@?$AAs?$AAr?$AA?9?$AAs?$AAp?$AA?9?$AAl?$AAa?$AAt?$AAn?$AA?$AA@ 1001ca84     libucrt:lcidtoname_downlevel.obj
 0002:00004a9c       ??_C@_1M@NGFJLMAC@?$AAs?$AAv?$AA?9?$AAf?$AAi?$AA?$AA@ 1001ca9c     libucrt:lcidtoname_downlevel.obj
 0002:00004aa8       ??_C@_1M@MPJEJAJC@?$AAs?$AAv?$AA?9?$AAs?$AAe?$AA?$AA@ 1001caa8     libucrt:lcidtoname_downlevel.obj
 0002:00004ab4       ??_C@_1M@MPNDHLFK@?$AAs?$AAw?$AA?9?$AAk?$AAe?$AA?$AA@ 1001cab4     libucrt:lcidtoname_downlevel.obj
 0002:00004ac0       ??_C@_1O@KOHBJJI@?$AAs?$AAy?$AAr?$AA?9?$AAs?$AAy?$AA?$AA@ 1001cac0     libucrt:lcidtoname_downlevel.obj
 0002:00004ad0       ??_C@_1M@LDCEFHA@?$AAt?$AAa?$AA?9?$AAi?$AAn?$AA?$AA@ 1001cad0     libucrt:lcidtoname_downlevel.obj
 0002:00004adc       ??_C@_1M@CNJOFAK@?$AAt?$AAe?$AA?9?$AAi?$AAn?$AA?$AA@ 1001cadc     libucrt:lcidtoname_downlevel.obj
 0002:00004ae8       ??_C@_1M@GNAECACD@?$AAt?$AAh?$AA?9?$AAt?$AAh?$AA?$AA@ 1001cae8     libucrt:lcidtoname_downlevel.obj
 0002:00004af4       ??_C@_1M@CHBIHOJO@?$AAt?$AAn?$AA?9?$AAz?$AAa?$AA?$AA@ 1001caf4     libucrt:lcidtoname_downlevel.obj
 0002:00004b00       ??_C@_1M@GCCMIGPJ@?$AAt?$AAr?$AA?9?$AAt?$AAr?$AA?$AA@ 1001cb00     libucrt:lcidtoname_downlevel.obj
 0002:00004b0c       ??_C@_1M@CELMCNBK@?$AAt?$AAt?$AA?9?$AAr?$AAu?$AA?$AA@ 1001cb0c     libucrt:lcidtoname_downlevel.obj
 0002:00004b18       ??_C@_1M@KLMCELGA@?$AAu?$AAk?$AA?9?$AAu?$AAa?$AA?$AA@ 1001cb18     libucrt:lcidtoname_downlevel.obj
 0002:00004b24       ??_C@_1M@EPAJJAJF@?$AAu?$AAr?$AA?9?$AAp?$AAk?$AA?$AA@ 1001cb24     libucrt:lcidtoname_downlevel.obj
 0002:00004b30       ??_C@_1BG@GEGPMCDJ@?$AAu?$AAz?$AA?9?$AAu?$AAz?$AA?9?$AAc?$AAy?$AAr?$AAl?$AA?$AA@ 1001cb30     libucrt:lcidtoname_downlevel.obj
 0002:00004b48       ??_C@_1BG@EGGKJILM@?$AAu?$AAz?$AA?9?$AAu?$AAz?$AA?9?$AAl?$AAa?$AAt?$AAn?$AA?$AA@ 1001cb48     libucrt:lcidtoname_downlevel.obj
 0002:00004b60       ??_C@_1M@GFOCLFF@?$AAv?$AAi?$AA?9?$AAv?$AAn?$AA?$AA@ 1001cb60     libucrt:lcidtoname_downlevel.obj
 0002:00004b6c       ??_C@_1M@CPAMEDFI@?$AAx?$AAh?$AA?9?$AAz?$AAa?$AA?$AA@ 1001cb6c     libucrt:lcidtoname_downlevel.obj
 0002:00004b78       ??_C@_1O@EBKIFIGN@?$AAz?$AAh?$AA?9?$AAc?$AAh?$AAs?$AA?$AA@ 1001cb78     libucrt:lcidtoname_downlevel.obj
 0002:00004b88       ??_C@_1O@NMHPGANE@?$AAz?$AAh?$AA?9?$AAc?$AAh?$AAt?$AA?$AA@ 1001cb88     libucrt:lcidtoname_downlevel.obj
 0002:00004b98       ??_C@_1M@LPINJOMC@?$AAz?$AAh?$AA?9?$AAc?$AAn?$AA?$AA@ 1001cb98     libucrt:lcidtoname_downlevel.obj
 0002:00004ba4       ??_C@_1M@OCJEJODD@?$AAz?$AAh?$AA?9?$AAh?$AAk?$AA?$AA@ 1001cba4     libucrt:lcidtoname_downlevel.obj
 0002:00004bb0       ??_C@_1M@DNDLJINH@?$AAz?$AAh?$AA?9?$AAm?$AAo?$AA?$AA@ 1001cbb0     libucrt:lcidtoname_downlevel.obj
 0002:00004bbc       ??_C@_1M@MBFDNDND@?$AAz?$AAh?$AA?9?$AAs?$AAg?$AA?$AA@ 1001cbbc     libucrt:lcidtoname_downlevel.obj
 0002:00004bc8       ??_C@_1M@IMEPLEPE@?$AAz?$AAh?$AA?9?$AAt?$AAw?$AA?$AA@ 1001cbc8     libucrt:lcidtoname_downlevel.obj
 0002:00004bd4       ??_C@_1M@BBGHNHJP@?$AAz?$AAu?$AA?9?$AAz?$AAa?$AA?$AA@ 1001cbd4     libucrt:lcidtoname_downlevel.obj
 0002:00005550       __infinity                 1001d550     libucrt:87tran.obj
 0002:0000555a       __minfinity                1001d55a     libucrt:87tran.obj
 0002:00005564       __logemax                  1001d564     libucrt:87tran.obj
 0002:0000558a       __OP_EXPjmptab             1001d58a     libucrt:87tran.obj
 0002:000055b0       __indefinite               1001d5b0     libucrt:87disp.obj
 0002:000055ba       __piby2                    1001d5ba     libucrt:87disp.obj
 0002:000055c4       __piby4                    1001d5c4     libucrt:87disp.obj
 0002:000055f8       __DEFAULT_CW_in_mem        1001d5f8     libucrt:common.obj
 0002:000055fa       __pi_by_2_to_61            1001d5fa     libucrt:common.obj
 0002:00005634       ??_C@_03MGHMBJCF@log?$AA@  1001d634     libucrt:libm_error.obj
 0002:00005638       ??_C@_05HGHHAHAP@log10?$AA@ 1001d638     libucrt:libm_error.obj
 0002:00005640       ??_C@_03KHJOGHMM@exp?$AA@  1001d640     libucrt:libm_error.obj
 0002:00005644       ??_C@_03JGHBODFD@pow?$AA@  1001d644     libucrt:libm_error.obj
 0002:00005648       ??_C@_04FIHNOPOL@asin?$AA@ 1001d648     libucrt:libm_error.obj
 0002:00005650       ??_C@_04PDIFKINK@acos?$AA@ 1001d650     libucrt:libm_error.obj
 0002:00005658       ??_C@_04EIAKFFMI@sqrt?$AA@ 1001d658     libucrt:libm_error.obj
 0002:00005660       __real@3ff0000000000000    1001d660     libucrt:libm_error.obj
 0002:00005668       ??_C@_1BA@BALFACEM@?$AAC?$AAO?$AAN?$AAO?$AAU?$AAT?$AA$?$AA?$AA@ 1001d668     libucrt:initcon.obj
 0002:00005678       __real@3fe0000000000000    1001d678     libucrt:powhlp.obj
 0002:00005680       ??_C@_04COOMCNPB@sinh?$AA@ 1001d680     libucrt:fpexcept.obj
 0002:00005688       ??_C@_04HPJJNFIM@cosh?$AA@ 1001d688     libucrt:fpexcept.obj
 0002:00005690       ??_C@_04FJHINJAO@tanh?$AA@ 1001d690     libucrt:fpexcept.obj
 0002:00005698       ??_C@_04MLLJIGOK@atan?$AA@ 1001d698     libucrt:fpexcept.obj
 0002:000056a0       ??_C@_05KNGEOGJB@atan2?$AA@ 1001d6a0     libucrt:fpexcept.obj
 0002:000056a8       ??_C@_03BLEJJJBH@sin?$AA@  1001d6a8     libucrt:fpexcept.obj
 0002:000056ac       ??_C@_03LALBNOCG@cos?$AA@  1001d6ac     libucrt:fpexcept.obj
 0002:000056b0       ??_C@_03IIINPABG@tan?$AA@  1001d6b0     libucrt:fpexcept.obj
 0002:000056b4       ??_C@_04GFPJNGEK@ceil?$AA@ 1001d6b4     libucrt:fpexcept.obj
 0002:000056bc       ??_C@_05PBJFFIGL@floor?$AA@ 1001d6bc     libucrt:fpexcept.obj
 0002:000056c4       ??_C@_04ODHECPBC@fabs?$AA@ 1001d6c4     libucrt:fpexcept.obj
 0002:000056cc       ??_C@_04EHEDPDJG@modf?$AA@ 1001d6cc     libucrt:fpexcept.obj
 0002:000056d4       ??_C@_05CEJMAHNP@ldexp?$AA@ 1001d6d4     libucrt:fpexcept.obj
 0002:000056dc       ??_C@_05KBKMEMPO@_cabs?$AA@ 1001d6dc     libucrt:fpexcept.obj
 0002:000056e4       ??_C@_06MEIMCGCF@_hypot?$AA@ 1001d6e4     libucrt:fpexcept.obj
 0002:000056ec       ??_C@_04KEPJIHGP@fmod?$AA@ 1001d6ec     libucrt:fpexcept.obj
 0002:000056f4       ??_C@_05GKKHEGJL@frexp?$AA@ 1001d6f4     libucrt:fpexcept.obj
 0002:000056fc       ??_C@_03MJLDFKDL@_y0?$AA@  1001d6fc     libucrt:fpexcept.obj
 0002:00005700       ??_C@_03NAKIGLHK@_y1?$AA@  1001d700     libucrt:fpexcept.obj
 0002:00005704       ??_C@_03ONILCKOB@_yn?$AA@  1001d704     libucrt:fpexcept.obj
 0002:00005708       ??_C@_05JGDBENOH@_logb?$AA@ 1001d708     libucrt:fpexcept.obj
 0002:00005710       ??_C@_0L@KDOEJCKC@_nextafter?$AA@ 1001d710     libucrt:fpexcept.obj
 0002:0000571c       ??_C@_1BK@DBDEIDLH@?$AAK?$AAE?$AAR?$AAN?$AAE?$AAL?$AA3?$AA2?$AA?4?$AAD?$AAL?$AAL?$AA?$AA@ 1001d71c     DelayImp:delayhlp.obj
 0002:00005738       ??_C@_0BI@OMNLIJDB@AcquireSRWLockExclusive?$AA@ 1001d738     DelayImp:delayhlp.obj
 0002:00005750       ??_C@_0BI@HMIEPCNJ@ReleaseSRWLockExclusive?$AA@ 1001d750     DelayImp:delayhlp.obj
 0002:00005768       __load_config_used         1001d768     LIBCMT:loadcfg.obj
 0002:000057c4       ??_C@_04BFAHMMK@?$CFlld?$AA@ 1001d7c4     binding.obj
 0002:000057cc       ??_C@_04FCIJFPNK@?$CFllu?$AA@ 1001d7cc     binding.obj
 0002:000057d8       ??_C@_1GE@GNPDEBNK@?$AAd?$AA?3?$AA?2?$AAP?$AAr?$AAo?$AAj?$AAe?$AAc?$AAt?$AAs?$AA_?$AAH?$AAT?$AAM?$AAL?$AA?2?$AAn?$AAo?$AAd?$AAe?$AA_?$AAd?$AAe?$AAm?$AAo?$AA?2?$AAn?$AAo?$AAd?$AAe?$AA_@ 1001d7d8     binding.obj
 0002:00005840       ??_C@_1GA@PFOOBIAG@?$AAl?$AAe?$AAn?$AAg?$AAt?$AAh?$AA?5?$AA?$DM?$AA?$DN?$AA?5?$AAi?$AAm?$AAp?$AA?3?$AA?3?$AAk?$AAM?$AAa?$AAx?$AAL?$AAe?$AAn?$AAg?$AAt?$AAh?$AA?5?$AA?$CG?$AA?$CG?$AA?5?$AA?$CC?$AAt?$AAo@ 1001d840     binding.obj
 0002:000058a0       ??_C@_0CC@DPJFAJAC@address?3?5Buffer?5instance?5expecte@ 1001d8a0     binding.obj
 0002:000058c4       ??_C@_0CF@CDOAPIAH@hexAddress?3?5Buffer?5instance?5expe@ 1001d8c4     binding.obj
 0002:000058ec       ??_C@_02BBAHNLBA@?$CFp?$AA@ 1001d8ec     binding.obj
 0002:000058f0       ??_C@_0CB@MEIKLGAN@isNull?3?5Buffer?5instance?5expected@ 1001d8f0     binding.obj
 0002:00005914       ??_C@_02PEDAOJAJ@LE?$AA@   1001d914     binding.obj
 0002:00005918       ??_C@_0CF@PNPHGGIN@readObject?3?5Buffer?5instance?5expe@ 1001d918     binding.obj
 0002:00005940       ??_C@_0CK@COMINFKC@readObject?3?5Cannot?5read?5from?5NUL@ 1001d940     binding.obj
 0002:0000596c       ??_C@_0CG@INPFBDFJ@writeObject?3?5Buffer?5instance?5exp@ 1001d96c     binding.obj
 0002:00005994       ??_C@_0DI@KMJOADMP@readPointer?3?5Buffer?5instance?5exp@ 1001d994     binding.obj
 0002:000059cc       ??_C@_0CL@KBOPJBLG@readPointer?3?5Cannot?5read?5from?5NU@ 1001d9cc     binding.obj
 0002:000059f8       ??_C@_0DJ@KHGFNHCO@writePointer?3?5Buffer?5instance?5ex@ 1001d9f8     binding.obj
 0002:00005a34       ??_C@_0DJ@LABDIJFL@writePointer?3?5Buffer?5instance?5ex@ 1001da34     binding.obj
 0002:00005a70       ??_C@_0CE@IOPFPGLB@readInt64?3?5Buffer?5instance?5expec@ 1001da70     binding.obj
 0002:00005a94       ??_C@_0CJ@PAMPJPNK@readInt64?3?5Cannot?5read?5from?5NULL@ 1001da94     binding.obj
 0002:00005ac0       ??_C@_0CF@OGHEKNLE@writeInt64?3?5Buffer?5instance?5expe@ 1001dac0     binding.obj
 0002:00005ae8       ??_C@_0DA@JEKNBHFK@writeInt64?3?5Number?1String?564?9bit@ 1001dae8     binding.obj
 0002:00005b18       ??_C@_0CF@OLPJBHBA@readUInt64?3?5Buffer?5instance?5expe@ 1001db18     binding.obj
 0002:00005b40       ??_C@_0CK@MCNLGJCH@readUInt64?3?5Cannot?5read?5from?5NUL@ 1001db40     binding.obj
 0002:00005b6c       ??_C@_0CG@JLPLGCME@writeUInt64?3?5Buffer?5instance?5exp@ 1001db6c     binding.obj
 0002:00005b94       ??_C@_0DB@GNICFLFK@writeUInt64?3?5Number?1String?564?9bi@ 1001db94     binding.obj
 0002:00005bc8       ??_C@_0CG@ELIKEPGN@readCString?3?5Buffer?5instance?5exp@ 1001dbc8     binding.obj
 0002:00005bf0       ??_C@_0CL@DFJAAAPE@readCString?3?5Cannot?5read?5from?5NU@ 1001dbf0     binding.obj
 0002:00005c1c       ??_C@_0CG@GJJKDCPC@reinterpret?3?5Buffer?5instance?5exp@ 1001dc1c     binding.obj
 0002:00005c44       ??_C@_0DC@FEMIIEMO@reinterpret?3?5Cannot?5reinterpret?5@ 1001dc44     binding.obj
 0002:00005c78       ??_C@_0DA@GHACKNLG@reinterpretUntilZeros?3?5Buffer?5in@ 1001dc78     binding.obj
 0002:00005ca8       ??_C@_0DM@DHPMBOFM@reinterpretUntilZeros?3?5Cannot?5re@ 1001dca8     binding.obj
 0002:00005ce4       ??_C@_04DCGBOBJJ@int8?$AA@ 1001dce4     binding.obj
 0002:00005cec       ??_C@_05BOGOCLFF@uint8?$AA@ 1001dcec     binding.obj
 0002:00005cf4       ??_C@_05PCMOAPL@int16?$AA@ 1001dcf4     binding.obj
 0002:00005cfc       ??_C@_06JNNCGBKK@uint16?$AA@ 1001dcfc     binding.obj
 0002:00005d04       ??_C@_05GIMEPBJB@int32?$AA@ 1001dd04     binding.obj
 0002:00005d0c       ??_C@_06PKDKHAMA@uint32?$AA@ 1001dd0c     binding.obj
 0002:00005d14       ??_C@_05DIFFJEPM@int64?$AA@ 1001dd14     binding.obj
 0002:00005d1c       ??_C@_06KKKLBFKN@uint64?$AA@ 1001dd1c     binding.obj
 0002:00005d24       ??_C@_05KNFBNCOH@float?$AA@ 1001dd24     binding.obj
 0002:00005d2c       ??_C@_06BNJCAIGJ@double?$AA@ 1001dd2c     binding.obj
 0002:00005d34       ??_C@_04DDKJGDCM@bool?$AA@ 1001dd34     binding.obj
 0002:00005d3c       ??_C@_04IHGKJMLH@byte?$AA@ 1001dd3c     binding.obj
 0002:00005d44       ??_C@_04ENMBGAPA@char?$AA@ 1001dd44     binding.obj
 0002:00005d4c       ??_C@_05GBMOKKDM@uchar?$AA@ 1001dd4c     binding.obj
 0002:00005d54       ??_C@_05BFKKPKCG@short?$AA@ 1001dd54     binding.obj
 0002:00005d5c       ??_C@_06IHFEHLHH@ushort?$AA@ 1001dd5c     binding.obj
 0002:00005d64       ??_C@_03JBIPMCLC@int?$AA@  1001dd64     binding.obj
 0002:00005d68       ??_C@_04EHNLIFAM@uint?$AA@ 1001dd68     binding.obj
 0002:00005d70       ??_C@_04GOKPGOLB@long?$AA@ 1001dd70     binding.obj
 0002:00005d78       ??_C@_05ECKAKEHN@ulong?$AA@ 1001dd78     binding.obj
 0002:00005d80       ??_C@_08DDGAEFPP@longlong?$AA@ 1001dd80     binding.obj
 0002:00005d8c       ??_C@_09CGIDHHPL@ulonglong?$AA@ 1001dd8c     binding.obj
 0002:00005d98       ??_C@_07PFMCDPMA@pointer?$AA@ 1001dd98     binding.obj
 0002:00005da0       ??_C@_06DMBJOIF@size_t?$AA@ 1001dda0     binding.obj
 0002:00005da8       ??_C@_06ELFECKBG@Object?$AA@ 1001dda8     binding.obj
 0002:00005db0       ??_C@_06FPFOALMG@sizeof?$AA@ 1001ddb0     binding.obj
 0002:00005db8       ??_C@_07GFLGJDOB@alignof?$AA@ 1001ddb8     binding.obj
 0002:00005dc0       ??_C@_0L@NDJODAMI@endianness?$AA@ 1001ddc0     binding.obj
 0002:00005dcc       ??_C@_04HIBGFPH@NULL?$AA@  1001ddcc     binding.obj
 0002:00005dd4       ??_C@_07LHEPONKL@address?$AA@ 1001ddd4     binding.obj
 0002:00005ddc       ??_C@_0L@NGDODIPM@hexAddress?$AA@ 1001dddc     binding.obj
 0002:00005de8       ??_C@_06MCKMPGLB@isNull?$AA@ 1001dde8     binding.obj
 0002:00005df0       ??_C@_0L@DDIGFLCE@readObject?$AA@ 1001ddf0     binding.obj
 0002:00005dfc       ??_C@_0M@EDMHKDPC@writeObject?$AA@ 1001ddfc     binding.obj
 0002:00005e08       ??_C@_0M@MEBLNOGH@readPointer?$AA@ 1001de08     binding.obj
 0002:00005e14       ??_C@_0N@KLNLOIHO@writePointer?$AA@ 1001de14     binding.obj
 0002:00005e24       ??_C@_09OKEBABIC@readInt64?$AA@ 1001de24     binding.obj
 0002:00005e30       ??_C@_0L@MBENFIIH@writeInt64?$AA@ 1001de30     binding.obj
 0002:00005e3c       ??_C@_0L@BKGIFIDF@readUInt64?$AA@ 1001de3c     binding.obj
 0002:00005e48       ??_C@_0M@GKCJKAOD@writeUInt64?$AA@ 1001de48     binding.obj
 0002:00005e54       ??_C@_0M@NKCHMKPI@readCString?$AA@ 1001de54     binding.obj
 0002:00005e60       ??_C@_0M@FOFOAEAO@reinterpret?$AA@ 1001de60     binding.obj
 0002:00005e6c       ??_C@_0BG@OCDBEFEP@reinterpretUntilZeros?$AA@ 1001de6c     binding.obj
 0002:00005e84       ??_C@_0BC@OMDPIAIO@?4?4?2src?2binding?4cc?$AA@ 1001de84     binding.obj
 0002:00005e98       ??_C@_07GGKKJCAC@binding?$AA@ 1001de98     binding.obj
 0002:00005ea0       ??_C@_08HCOMDCCD@iojs?4exe?$AA@ 1001dea0     win_delay_load_hook.obj
 0002:00005eac       ??_C@_08JDDNMFDB@node?4exe?$AA@ 1001deac     win_delay_load_hook.obj
 0002:00005ec0       __xmm@41f00000000000000000000000000000 1001dec0     binding.obj
 0002:0000601c       ??_R4exception@std@@6B@    1001e01c     LIBCMT:throw_bad_alloc.obj
 0002:00006030       ??_R3exception@std@@8      1001e030     LIBCMT:throw_bad_alloc.obj
 0002:00006040       ??_R2exception@std@@8      1001e040     LIBCMT:throw_bad_alloc.obj
 0002:00006048       ??_R1A@?0A@EA@exception@std@@8 1001e048     LIBCMT:throw_bad_alloc.obj
 0002:00006064       ??_R4bad_alloc@std@@6B@    1001e064     LIBCMT:throw_bad_alloc.obj
 0002:00006078       ??_R3bad_alloc@std@@8      1001e078     LIBCMT:throw_bad_alloc.obj
 0002:00006088       ??_R2bad_alloc@std@@8      1001e088     LIBCMT:throw_bad_alloc.obj
 0002:00006094       ??_R1A@?0A@EA@bad_alloc@std@@8 1001e094     LIBCMT:throw_bad_alloc.obj
 0002:000060b0       ??_R4bad_array_new_length@std@@6B@ 1001e0b0     LIBCMT:throw_bad_alloc.obj
 0002:000060c4       ??_R3bad_array_new_length@std@@8 1001e0c4     LIBCMT:throw_bad_alloc.obj
 0002:000060d4       ??_R2bad_array_new_length@std@@8 1001e0d4     LIBCMT:throw_bad_alloc.obj
 0002:000060e4       ??_R1A@?0A@EA@bad_array_new_length@std@@8 1001e0e4     LIBCMT:throw_bad_alloc.obj
 0002:00006100       ??_R4type_info@@6B@        1001e100     LIBCMT:std_type_info_static.obj
 0002:00006114       ??_R3type_info@@8          1001e114     LIBCMT:std_type_info_static.obj
 0002:00006124       ??_R2type_info@@8          1001e124     LIBCMT:std_type_info_static.obj
 0002:0000612c       ??_R1A@?0A@EA@type_info@@8 1001e12c     LIBCMT:std_type_info_static.obj
 0002:00006150       ___safe_se_handler_table   1001e150     <linker-defined>
 0002:00006160       ?_TraceLoggingMetadata@?1??_TlgWrite@@9@4U_TraceLoggingMetadata_t@@B 1001e160     libvcruntime:telemetry.obj
 0002:00006213       ?_TraceLoggingMetadataEnd@?1??_TlgWrite@@9@4EB 1001e213     libvcruntime:telemetry.obj
 0002:00006214       ___rtc_iaa                 1001e214     LIBCMT:_initsect_.obj
 0002:00006218       ___rtc_izz                 1001e218     LIBCMT:_initsect_.obj
 0002:0000621c       ___rtc_taa                 1001e21c     LIBCMT:_initsect_.obj
 0002:00006220       ___rtc_tzz                 1001e220     LIBCMT:_initsect_.obj
 0002:00006284       __TI2?AVbad_alloc@std@@    1001e284     LIBCMT:throw_bad_alloc.obj
 0002:00006294       __CTA2?AVbad_alloc@std@@   1001e294     LIBCMT:throw_bad_alloc.obj
 0002:000062a0       __CT??_R0?AVbad_alloc@std@@@8??0bad_alloc@std@@QAE@ABV01@@Z12 1001e2a0     LIBCMT:throw_bad_alloc.obj
 0002:000062bc       __CT??_R0?AVexception@std@@@8??0exception@std@@QAE@ABV01@@Z12 1001e2bc     LIBCMT:throw_bad_alloc.obj
 0002:000062d8       __TI3?AVbad_array_new_length@std@@ 1001e2d8     LIBCMT:throw_bad_alloc.obj
 0002:000062e8       __CTA3?AVbad_array_new_length@std@@ 1001e2e8     LIBCMT:throw_bad_alloc.obj
 0002:000062f8       __CT??_R0?AVbad_array_new_length@std@@@8??0bad_array_new_length@std@@QAE@ABV01@@Z12 1001e2f8     LIBCMT:throw_bad_alloc.obj
 0002:000066a4       __DELAY_IMPORT_DESCRIPTOR_node_exe 1001e6a4     node:node.exe
 0002:000066c4       __NULL_DELAY_IMPORT_DESCRIPTOR 1001e6c4     node:node.exe
 0002:00006790       \177node_NULL_THUNK_DATA_DLN 1001e790     node:node.exe
 0002:0000729c       \177node_NULL_THUNK_DATA_DLB 1001f29c     node:node.exe
 0002:000073a4       __IMPORT_DESCRIPTOR_KERNEL32 1001f3a4     kernel32:KERNEL32.dll
 0002:000073b8       __IMPORT_DESCRIPTOR_ADVAPI32 1001f3b8     advapi32:ADVAPI32.dll
 0002:000073cc       __NULL_IMPORT_DESCRIPTOR   1001f3cc     kernel32:KERNEL32.dll
 0003:00000000       ___security_cookie_complement 10020000     LIBCMT:gs_cookie.obj
 0003:00000004       ___security_cookie         10020004     LIBCMT:gs_cookie.obj
 0003:00000008       ___scrt_native_dllmain_reason 10020008     LIBCMT:utility.obj
 0003:00000010       ___isa_enabled             10020010     LIBCMT:_cpu_disp_.obj
 0003:00000070       __NLG_Destination          10020070     libvcruntime:_exsup_.obj
 0003:000001f0       ___abort_behavior          100201f0     libucrt:abort.obj
 0003:000001f8       __iob                      100201f8     libucrt:_file.obj
 0003:000002a0       ___lc_time_c               100202a0     libucrt:nlsdata.obj
 0003:00000408       ___acrt_initial_locale_data 10020408     libucrt:nlsdata.obj
 0003:000004c0       ___acrt_initial_locale_pointers 100204c0     libucrt:nlsdata.obj
 0003:000004c8       ___acrt_wide_c_locale_string 100204c8     libucrt:nlsdata.obj
 0003:000004d0       ___badioinfo               100204d0     libucrt:ioinit.obj
 0003:00000500       __pwctype                  10020500     libucrt:ctype.obj
 0003:00000508       __mbctype                  10020508     libucrt:mbctype.obj
 0003:00000610       __mbcasemap                10020610     libucrt:mbctype.obj
 0003:00000710       ___acrt_initial_multibyte_data 10020710     libucrt:mbctype.obj
 0003:00000930       ___acrt_current_multibyte_data 10020930     libucrt:mbctype.obj
 0003:00000a28       ___globallocalestatus      10020a28     libucrt:glstatus.obj
 0003:00000a2c       ___acrt_lconv_static_decimal 10020a2c     libucrt:localeconv.obj
 0003:00000a30       ___acrt_lconv_static_W_decimal 10020a30     libucrt:localeconv.obj
 0003:00000a38       ___acrt_lconv_c            10020a38     libucrt:localeconv.obj
 0003:00000aa4       ___dcrt_lowio_console_output_handle 10020aa4     libucrt:initcon.obj
 0003:00000bb0       __d_inf                    10020bb0     libucrt:util.obj
 0003:00000bb8       __d_max                    10020bb8     libucrt:util.obj
 0003:00000bc0       __d_mzero                  10020bc0     libucrt:util.obj
 0003:00000bd0       __fltused                  10020bd0     LIBCMT:fltused.obj
 0003:00000c04       ___pfnDliNotifyHook2       10020c04     win_delay_load_hook.obj
 0003:00000c10       ??_R0?AVbad_alloc@std@@@8  10020c10     LIBCMT:throw_bad_alloc.obj
 0003:00000c2c       ??_R0?AVexception@std@@@8  10020c2c     LIBCMT:throw_bad_alloc.obj
 0003:00000c48       ??_R0?AVbad_array_new_length@std@@@8 10020c48     LIBCMT:throw_bad_alloc.obj
 0003:00000c70       ??_R0?AVtype_info@@@8      10020c70     LIBCMT:std_type_info_static.obj
 0003:00000c88       __imp_?Uint32Value@Value@v8@@QBEIXZ 10020c88     node:node.exe
 0003:00000c8c       __imp_?IntegerValue@Value@v8@@QBE?AV?$Maybe@_J@2@V?$Local@VContext@v8@@@2@@Z 10020c8c     node:node.exe
 0003:00000c90       __imp_?BooleanValue@Value@v8@@QBE_NXZ 10020c90     node:node.exe
 0003:00000c94       __imp_?ToUint32@Value@v8@@QBE?AV?$MaybeLocal@VUint32@v8@@@2@V?$Local@VContext@v8@@@2@@Z 10020c94     node:node.exe
 0003:00000c98       __imp_?IsNumber@Value@v8@@QBE_NXZ 10020c98     node:node.exe
 0003:00000c9c       __imp_?ToLocalEmpty@V8@v8@@CAXXZ 10020c9c     node:node.exe
 0003:00000ca0       __imp_?FromJustIsNothing@V8@v8@@CAXXZ 10020ca0     node:node.exe
 0003:00000ca4       __imp_?MakeWeak@V8@v8@@CAXPAPAVObject@internal@2@PAXP6AXABV?$WeakCallbackInfo@X@2@@ZW4WeakCallbackType@2@@Z 10020ca4     node:node.exe
 0003:00000ca8       __imp_?DisposeGlobal@V8@v8@@CAXPAPAVObject@internal@2@@Z 10020ca8     node:node.exe
 0003:00000cac       __imp_?GlobalizeReference@V8@v8@@CAPAPAVObject@internal@2@PAVIsolate@42@PAPAV342@@Z 10020cac     node:node.exe
 0003:00000cb0       __imp_?Escape@EscapableHandleScope@v8@@AAEPAPAVObject@internal@2@PAPAV342@@Z 10020cb0     node:node.exe
 0003:00000cb4       __imp_??0EscapableHandleScope@v8@@QAE@PAVIsolate@1@@Z 10020cb4     node:node.exe
 0003:00000cb8       __imp_?CreateHandle@HandleScope@v8@@KAPAPAVObject@internal@2@PAVIsolate@42@PAV342@@Z 10020cb8     node:node.exe
 0003:00000cbc       __imp_?CreateHandle@HandleScope@v8@@CAPAPAVObject@internal@2@PAVHeapObject@42@PAV342@@Z 10020cbc     node:node.exe
 0003:00000cc0       __imp_??1HandleScope@v8@@QAE@XZ 10020cc0     node:node.exe
 0003:00000cc4       __imp_??0HandleScope@v8@@QAE@PAVIsolate@1@@Z 10020cc4     node:node.exe
 0003:00000cc8       __imp_?NewFromUnsigned@Integer@v8@@SA?AV?$Local@VInteger@v8@@@2@PAVIsolate@2@I@Z 10020cc8     node:node.exe
 0003:00000ccc       __imp_?ThrowException@Isolate@v8@@QAE?AV?$Local@VValue@v8@@@2@V32@@Z 10020ccc     node:node.exe
 0003:00000cd0       __imp_?GetCurrentContext@Isolate@v8@@QAE?AV?$Local@VContext@v8@@@2@XZ 10020cd0     node:node.exe
 0003:00000cd4       __imp_?GetCurrent@Isolate@v8@@SAPAV12@XZ 10020cd4     node:node.exe
 0003:00000cd8       __imp_?Value@External@v8@@QBEPAXXZ 10020cd8     node:node.exe
 0003:00000cdc       __imp_?New@External@v8@@SA?AV?$Local@VExternal@v8@@@2@PAVIsolate@2@PAX@Z 10020cdc     node:node.exe
 0003:00000ce0       __imp_?New@Number@v8@@SA?AV?$Local@VNumber@v8@@@2@PAVIsolate@2@N@Z 10020ce0     node:node.exe
 0003:00000ce4       __imp_?GetFunction@FunctionTemplate@v8@@QAE?AV?$MaybeLocal@VFunction@v8@@@2@V?$Local@VContext@v8@@@2@@Z 10020ce4     node:node.exe
 0003:00000ce8       __imp_?New@FunctionTemplate@v8@@SA?AV?$Local@VFunctionTemplate@v8@@@2@PAVIsolate@2@P6AXABV?$FunctionCallbackInfo@VValue@v8@@@2@@ZV?$Local@VValue@v8@@@2@V?$Local@VSignature@v8@@@2@H@Z 10020ce8     node:node.exe
 0003:00000cec       __imp_??1Utf8Value@String@v8@@QAE@XZ 10020cec     node:node.exe
 0003:00000cf0       __imp_??0Utf8Value@String@v8@@QAE@V?$Local@VValue@v8@@@2@@Z 10020cf0     node:node.exe
 0003:00000cf4       __imp_?NewFromUtf8@String@v8@@SA?AV?$MaybeLocal@VString@v8@@@2@PAVIsolate@2@PBDW4NewStringType@2@H@Z 10020cf4     node:node.exe
 0003:00000cf8       __imp_?SlowGetInternalField@Object@v8@@AAE?AV?$Local@VValue@v8@@@2@H@Z 10020cf8     node:node.exe
 0003:00000cfc       __imp_?New@Object@v8@@SA?AV?$Local@VObject@v8@@@2@PAVIsolate@2@@Z 10020cfc     node:node.exe
 0003:00000d00       __imp_?SetInternalField@Object@v8@@QAEXHV?$Local@VValue@v8@@@2@@Z 10020d00     node:node.exe
 0003:00000d04       __imp_?ForceSet@Object@v8@@QAE_NV?$Local@VValue@v8@@@2@0W4PropertyAttribute@2@@Z 10020d04     node:node.exe
 0003:00000d08       __imp_?Set@Object@v8@@QAE_NV?$Local@VValue@v8@@@2@0@Z 10020d08     node:node.exe
 0003:00000d0c       __imp_?SetName@Function@v8@@QAEXV?$Local@VString@v8@@@2@@Z 10020d0c     node:node.exe
 0003:00000d10       __imp_?Error@Exception@v8@@SA?AV?$Local@VValue@v8@@@2@V?$Local@VString@v8@@@2@@Z 10020d10     node:node.exe
 0003:00000d14       __imp_?TypeError@Exception@v8@@SA?AV?$Local@VValue@v8@@@2@V?$Local@VString@v8@@@2@@Z 10020d14     node:node.exe
 0003:00000d18       __imp_?SetInternalFieldCount@ObjectTemplate@v8@@QAEXH@Z 10020d18     node:node.exe
 0003:00000d1c       __imp_?NewInstance@ObjectTemplate@v8@@QAE?AV?$MaybeLocal@VObject@v8@@@2@V?$Local@VContext@v8@@@2@@Z 10020d1c     node:node.exe
 0003:00000d20       __imp_?New@ObjectTemplate@v8@@SA?AV?$Local@VObjectTemplate@v8@@@2@PAVIsolate@2@V?$Local@VFunctionTemplate@v8@@@2@@Z 10020d20     node:node.exe
 0003:00000d24       __imp_?HasInstance@Buffer@node@@YA_NV?$Local@VValue@v8@@@v8@@@Z 10020d24     node:node.exe
 0003:00000d28       __imp_?New@Buffer@node@@YA?AV?$MaybeLocal@VObject@v8@@@v8@@PAVIsolate@4@PADIP6AX1PAX@Z2@Z 10020d28     node:node.exe
 0003:00000d2c       __imp_?Data@Buffer@node@@YAPADV?$Local@VObject@v8@@@v8@@@Z 10020d2c     node:node.exe
 0003:00000d30       __imp__node_module_register 10020d30     node:node.exe
 0003:00000d34       \177node_NULL_THUNK_DATA_DLA 10020d34     node:node.exe
 0003:00000d38       __hmod__node_exe           10020d38     node:node.exe
 0003:0000105c       ___scrt_current_native_startup_state 1002105c     LIBCMT:utility.obj
 0003:00001060       ___scrt_native_startup_lock 10021060     LIBCMT:utility.obj
 0003:00001080       ?__type_info_root_node@@3U__type_info_node@@A 10021080     LIBCMT:tncleanup.obj
 0003:00001088       ?_OptionsStorage@?1??__local_stdio_scanf_options@@9@4_KA 10021088     LIBCMT:default_local_stdio_options.obj
 0003:00001090       ___scrt_debugger_hook_flag 10021090     LIBCMT:utility_desktop.obj
 0003:00001094       ___isa_available           10021094     LIBCMT:_cpu_disp_.obj
 0003:00001098       ___favor                   10021098     LIBCMT:_cpu_disp_.obj
 0003:00001114       ___pPurecall               10021114     libvcruntime:purevirt_data.obj
 0003:00001118       ?pArgList@UnDecorator@@0PAVReplicator@@A 10021118     libvcruntime:undname.obj
 0003:0000111c       ?pZNameList@UnDecorator@@0PAVReplicator@@A 1002111c     libvcruntime:undname.obj
 0003:00001120       ?pTemplateArgList@UnDecorator@@0PAVReplicator@@A 10021120     libvcruntime:undname.obj
 0003:00001124       ?gName@UnDecorator@@0PBDB  10021124     libvcruntime:undname.obj
 0003:00001128       ?name@UnDecorator@@0PBDB   10021128     libvcruntime:undname.obj
 0003:0000112c       ?outputString@UnDecorator@@0PADA 1002112c     libvcruntime:undname.obj
 0003:00001130       ?maxStringLength@UnDecorator@@0HA 10021130     libvcruntime:undname.obj
 0003:00001134       ?disableFlags@UnDecorator@@0KA 10021134     libvcruntime:undname.obj
 0003:00001138       ?fExplicitTemplateParams@UnDecorator@@0_NA 10021138     libvcruntime:undname.obj
 0003:00001139       ?fGetTemplateArgumentList@UnDecorator@@0_NA 10021139     libvcruntime:undname.obj
 0003:0000113c       ?m_pGetParameter@UnDecorator@@0P6APADJ@ZA 1002113c     libvcruntime:undname.obj
 0003:00001164       __environ_table            10021164     libucrt:environment_initialization.obj
 0003:00001168       __wenviron_table           10021168     libucrt:environment_initialization.obj
 0003:0000116c       ___dcrt_initial_wide_environment 1002116c     libucrt:environment_initialization.obj
 0003:00001170       ___dcrt_initial_narrow_environment 10021170     libucrt:environment_initialization.obj
 0003:00001174       ___acrt_atexit_table       10021174     libucrt:onexit.obj
 0003:00001180       ___acrt_at_quick_exit_table 10021180     libucrt:onexit.obj
 0003:00001190       __nstream                  10021190     libucrt:_file.obj
 0003:00001194       ___piob                    10021194     libucrt:_file.obj
 0003:00002198       __cflush                   10022198     libucrt:_file.obj
 0003:000021a0       ___acrt_stdout_buffer      100221a0     libucrt:_sftbuf.obj
 0003:000021a4       ___acrt_stderr_buffer      100221a4     libucrt:_sftbuf.obj
 0003:000021a8       ___acrt_locale_changed_data 100221a8     libucrt:wsetlocale.obj
 0003:000021ac       ___acrt_current_locale_data 100221ac     libucrt:nlsdata.obj
 0003:000021b0       ___pioinfo                 100221b0     libucrt:ioinit.obj
 0003:000023b0       __nhandle                  100223b0     libucrt:ioinit.obj
 0003:0000250c       ___mbcodepage              1002250c     libucrt:mbctype.obj
 0003:00002510       ___ismbcodepage            10022510     libucrt:mbctype.obj
 0003:00002514       ___mbulinfo                10022514     libucrt:mbctype.obj
 0003:00002524       ___mblocalename            10022524     libucrt:mbctype.obj
 0003:00002604       ___acrt_heap               10022604     libucrt:heap_handle.obj
 0003:00002608       ___argv                    10022608     libucrt:argv_data.obj
 0003:0000260c       ___wargv                   1002260c     libucrt:argv_data.obj
 0003:00002610       __acmdln                   10022610     libucrt:argv_data.obj
 0003:00002614       __wcmdln                   10022614     libucrt:argv_data.obj
 0003:000027f4       ___acrt_lconv_static_null  100227f4     libucrt:localeconv.obj
 0003:000027f8       ___acrt_lconv_static_W_null 100227f8     libucrt:localeconv.obj
 0003:000027fc       ___fastflag                100227fc     libucrt:fp_flags.obj
 0003:00002804       ?DloadKernel32@@3PAUHINSTANCE__@@A 10022804     DelayImp:delayhlp.obj
 0003:00002808       ?DloadAcquireSRWLockExclusive@@3P6GXPAK@ZA 10022808     DelayImp:delayhlp.obj
 0003:0000280c       ?DloadReleaseSRWLockExclusive@@3P6GXPAK@ZA 1002280c     DelayImp:delayhlp.obj
 0003:00002810       ?DloadSrwLock@@3KA         10022810     DelayImp:delayhlp.obj
 0003:00002814       ?DloadSectionLockCount@@3KA 10022814     DelayImp:delayhlp.obj
 0003:00002818       ?DloadSectionOldProtection@@3KA 10022818     DelayImp:delayhlp.obj
 0003:0000281c       ?DloadSectionCommitPermanent@@3KA 1002281c     DelayImp:delayhlp.obj
 0003:00002820       ___pfnDliFailureHook2      10022820     DelayImp:delayhk1.obj
 0003:00002828       ?_OptionsStorage@?1??__local_stdio_printf_options@@9@4_KA 10022828     binding.obj
 0003:00002830       ___scrt_ucrt_dll_is_in_use 10022830     <common>
 0003:00002834       ___dyn_tls_init_callback   10022834     <common>
 0003:00002838       __pDestructExceptionObject 10022838     <common>
 0003:0000283c       __pmatherr                 1002283c     <common>
 0003:00002840       ___use_sse2_mathfcns       10022840     <common>

 entry point at        0001:000041e1

 Static symbols

 0000:fffda000       .debug$S                   10000000     kernel32:KERNEL32.dll
 0000:fffda000       .debug$S                   10000000     node:node.exe
 0000:fffda000       .debug$S                   10000000     node:node.exe
 0000:fffda000       .debug$S                   10000000     node:node.exe
 0000:fffda000       .debug$S                   10000000     node:node.exe
 0000:fffda000       .debug$S                   10000000     node:node.exe
 0000:fffda000       .debug$S                   10000000     node:node.exe
 0000:fffda000       .debug$S                   10000000     node:node.exe
 0000:fffda000       .debug$S                   10000000     node:node.exe
 0000:fffda000       .debug$S                   10000000     node:node.exe
 0000:fffda000       .debug$S                   10000000     node:node.exe
 0000:fffda000       .debug$S                   10000000     node:node.exe
 0000:fffda000       .debug$S                   10000000     node:node.exe
 0000:fffda000       .debug$S                   10000000     node:node.exe
 0000:fffda000       .debug$S                   10000000     node:node.exe
 0000:fffda000       .debug$S                   10000000     node:node.exe
 0000:fffda000       .debug$S                   10000000     node:node.exe
 0000:fffda000       .debug$S                   10000000     node:node.exe
 0000:fffda000       .debug$S                   10000000     node:node.exe
 0000:fffda000       .debug$S                   10000000     node:node.exe
 0000:fffda000       .debug$S                   10000000     node:node.exe
 0000:fffda000       .debug$S                   10000000     node:node.exe
 0000:fffda000       .debug$S                   10000000     node:node.exe
 0000:fffda000       .debug$S                   10000000     node:node.exe
 0000:fffda000       .debug$S                   10000000     node:node.exe
 0000:fffda000       .debug$S                   10000000     binding.exp
 0000:fffda000       .debug$S                   10000000     node:node.exe
 0000:fffda000       .debug$S                   10000000     node:node.exe
 0000:fffda000       .debug$S                   10000000     node:node.exe
 0000:fffda000       .debug$S                   10000000     node:node.exe
 0000:fffda000       .debug$S                   10000000     node:node.exe
 0000:fffda000       .debug$S                   10000000     kernel32:KERNEL32.dll
 0000:fffda000       .debug$S                   10000000     kernel32:KERNEL32.dll
 0000:fffda000       .debug$S                   10000000     kernel32:KERNEL32.dll
 0000:fffda000       .debug$S                   10000000     kernel32:KERNEL32.dll
 0000:fffda000       .debug$S                   10000000     kernel32:KERNEL32.dll
 0000:fffda000       .debug$S                   10000000     kernel32:KERNEL32.dll
 0000:fffda000       .debug$S                   10000000     kernel32:KERNEL32.dll
 0000:fffda000       .debug$S                   10000000     kernel32:KERNEL32.dll
 0000:fffda000       .debug$S                   10000000     kernel32:KERNEL32.dll
 0000:fffda000       .debug$S                   10000000     kernel32:KERNEL32.dll
 0000:fffda000       .debug$S                   10000000     kernel32:KERNEL32.dll
 0000:fffda000       .debug$S                   10000000     kernel32:KERNEL32.dll
 0000:fffda000       .debug$S                   10000000     kernel32:KERNEL32.dll
 0000:fffda000       .debug$S                   10000000     kernel32:KERNEL32.dll
 0000:fffda000       .debug$S                   10000000     kernel32:KERNEL32.dll
 0000:fffda000       .debug$S                   10000000     kernel32:KERNEL32.dll
 0000:fffda000       .debug$S                   10000000     kernel32:KERNEL32.dll
 0000:fffda000       .debug$S                   10000000     kernel32:KERNEL32.dll
 0000:fffda000       .debug$S                   10000000     kernel32:KERNEL32.dll
 0000:fffda000       .debug$S                   10000000     kernel32:KERNEL32.dll
 0000:fffda000       .debug$S                   10000000     kernel32:KERNEL32.dll
 0000:fffda000       .debug$S                   10000000     kernel32:KERNEL32.dll
 0000:fffda000       .debug$S                   10000000     kernel32:KERNEL32.dll
 0000:fffda000       .debug$S                   10000000     kernel32:KERNEL32.dll
 0000:fffda000       .debug$S                   10000000     kernel32:KERNEL32.dll
 0000:fffda000       .debug$S                   10000000     kernel32:KERNEL32.dll
 0000:fffda000       .debug$S                   10000000     kernel32:KERNEL32.dll
 0000:fffda000       .debug$S                   10000000     kernel32:KERNEL32.dll
 0000:fffda000       .debug$S                   10000000     kernel32:KERNEL32.dll
 0000:fffda000       .debug$S                   10000000     kernel32:KERNEL32.dll
 0000:fffda000       .debug$S                   10000000     kernel32:KERNEL32.dll
 0000:fffda000       .debug$S                   10000000     kernel32:KERNEL32.dll
 0000:fffda000       .debug$S                   10000000     kernel32:KERNEL32.dll
 0000:fffda000       .debug$S                   10000000     kernel32:KERNEL32.dll
 0000:fffda000       .debug$S                   10000000     kernel32:KERNEL32.dll
 0000:fffda000       .debug$S                   10000000     kernel32:KERNEL32.dll
 0000:fffda000       .debug$S                   10000000     kernel32:KERNEL32.dll
 0000:fffda000       .debug$S                   10000000     kernel32:KERNEL32.dll
 0000:fffda000       .debug$S                   10000000     kernel32:KERNEL32.dll
 0000:fffda000       .debug$S                   10000000     kernel32:KERNEL32.dll
 0000:fffda000       .debug$S                   10000000     kernel32:KERNEL32.dll
 0000:fffda000       .debug$S                   10000000     kernel32:KERNEL32.dll
 0000:fffda000       .debug$S                   10000000     kernel32:KERNEL32.dll
 0000:fffda000       .debug$S                   10000000     kernel32:KERNEL32.dll
 0000:fffda000       .debug$S                   10000000     kernel32:KERNEL32.dll
 0000:fffda000       .debug$S                   10000000     kernel32:KERNEL32.dll
 0000:fffda000       .debug$S                   10000000     kernel32:KERNEL32.dll
 0000:fffda000       .debug$S                   10000000     kernel32:KERNEL32.dll
 0000:fffda000       .debug$S                   10000000     kernel32:KERNEL32.dll
 0000:fffda000       .debug$S                   10000000     kernel32:KERNEL32.dll
 0000:fffda000       .debug$S                   10000000     kernel32:KERNEL32.dll
 0000:fffda000       .debug$S                   10000000     kernel32:KERNEL32.dll
 0000:fffda000       .debug$S                   10000000     kernel32:KERNEL32.dll
 0000:fffda000       .debug$S                   10000000     kernel32:KERNEL32.dll
 0000:fffda000       .debug$S                   10000000     kernel32:KERNEL32.dll
 0000:fffda000       .debug$S                   10000000     kernel32:KERNEL32.dll
 0000:fffda000       .debug$S                   10000000     kernel32:KERNEL32.dll
 0000:fffda000       .debug$S                   10000000     kernel32:KERNEL32.dll
 0000:fffda000       .debug$S                   10000000     kernel32:KERNEL32.dll
 0000:fffda000       .debug$S                   10000000     kernel32:KERNEL32.dll
 0000:fffda000       .debug$S                   10000000     kernel32:KERNEL32.dll
 0000:fffda000       .debug$S                   10000000     kernel32:KERNEL32.dll
 0000:fffda000       .debug$S                   10000000     kernel32:KERNEL32.dll
 0000:fffda000       .debug$S                   10000000     kernel32:KERNEL32.dll
 0000:fffda000       .debug$S                   10000000     kernel32:KERNEL32.dll
 0000:fffda000       .debug$S                   10000000     kernel32:KERNEL32.dll
 0000:fffda000       .debug$S                   10000000     kernel32:KERNEL32.dll
 0000:fffda000       .debug$S                   10000000     kernel32:KERNEL32.dll
 0000:fffda000       .debug$S                   10000000     kernel32:KERNEL32.dll
 0000:fffda000       .debug$S                   10000000     kernel32:KERNEL32.dll
 0000:fffda000       .debug$S                   10000000     kernel32:KERNEL32.dll
 0000:fffda000       .debug$S                   10000000     kernel32:KERNEL32.dll
 0000:fffda000       .debug$S                   10000000     kernel32:KERNEL32.dll
 0000:fffda000       .debug$S                   10000000     kernel32:KERNEL32.dll
 0000:fffda000       .debug$S                   10000000     kernel32:KERNEL32.dll
 0000:fffda000       .debug$S                   10000000     kernel32:KERNEL32.dll
 0000:fffda000       .debug$S                   10000000     kernel32:KERNEL32.dll
 0000:fffda000       .debug$S                   10000000     kernel32:KERNEL32.dll
 0000:fffda000       .debug$S                   10000000     kernel32:KERNEL32.dll
 0000:fffda000       .debug$S                   10000000     kernel32:KERNEL32.dll
 0000:fffda000       .debug$S                   10000000     kernel32:KERNEL32.dll
 0000:fffda000       .debug$S                   10000000     kernel32:KERNEL32.dll
 0000:fffda000       .debug$S                   10000000     node:node.exe
 0000:fffda000       .debug$S                   10000000     kernel32:KERNEL32.dll
 0000:fffda000       .debug$S                   10000000     node:node.exe
 0000:fffda000       .debug$S                   10000000     advapi32:ADVAPI32.dll
 0000:fffda000       .debug$S                   10000000     node:node.exe
 0000:fffda000       .debug$S                   10000000     node:node.exe
 0000:fffda000       .debug$S                   10000000     node:node.exe
 0000:fffda000       .debug$S                   10000000     node:node.exe
 0000:fffda000       .debug$S                   10000000     node:node.exe
 0000:fffda000       .debug$S                   10000000     node:node.exe
 0000:fffda000       .debug$S                   10000000     node:node.exe
 0000:fffda000       .debug$S                   10000000     node:node.exe
 0000:fffda000       .debug$S                   10000000     node:node.exe
 0000:fffda000       .debug$S                   10000000     node:node.exe
 0000:fffda000       .debug$S                   10000000     node:node.exe
 0000:fffda000       .debug$S                   10000000     node:node.exe
 0000:fffda000       .debug$S                   10000000     node:node.exe
 0000:fffda000       .debug$S                   10000000     node:node.exe
 0000:fffda000       .debug$S                   10000000     node:node.exe
 0000:fffda000       .debug$S                   10000000     node:node.exe
 0000:fffda000       .debug$S                   10000000     node:node.exe
 0000:fffda000       .debug$S                   10000000     node:node.exe
 0000:fffda000       .debug$S                   10000000     node:node.exe
 0000:fffda000       .debug$S                   10000000     node:node.exe
 0000:fffda000       .debug$S                   10000000     node:node.exe
 0000:fffda000       .debug$S                   10000000     node:node.exe
 0000:fffda000       .debug$S                   10000000     node:node.exe
 0000:fffda000       .debug$S                   10000000     node:node.exe
 0000:fffda000       .debug$S                   10000000     node:node.exe
 0000:fffda000       .debug$S                   10000000     node:node.exe
 0000:fffda000       .debug$S                   10000000     node:node.exe
 0001:000002b0       ?FunctionCallbackWrapper@imp@Nan@@YAXABV?$FunctionCallbackInfo@VValue@v8@@@v8@@@Z 100012b0 f   binding.obj
 0001:00000470       ?GetInt64@?A0x37f5ce2d@@YA_JV?$Local@VValue@v8@@@v8@@@Z 10001470 f   binding.obj
 0001:000004e0       ?Address@?A0x37f5ce2d@@YAXABV?$FunctionCallbackInfo@VValue@v8@@@Nan@@@Z 100014e0 f   binding.obj
 0001:00000610       ?HexAddress@?A0x37f5ce2d@@YAXABV?$FunctionCallbackInfo@VValue@v8@@@Nan@@@Z 10001610 f   binding.obj
 0001:00000780       ?IsNull@?A0x37f5ce2d@@YAXABV?$FunctionCallbackInfo@VValue@v8@@@Nan@@@Z 10001780 f   binding.obj
 0001:00000890       ?wrap_pointer_cb@?A0x37f5ce2d@@YAXPADPAX@Z 10001890 f   binding.obj
 0001:00000890       ?write_object_cb@?A0x37f5ce2d@@YAXABV?$WeakCallbackInfo@X@Nan@@@Z 10001890 f   binding.obj
 0001:00000890       __TlgDefineProvider_annotation__Tlg_Microsoft_CRTProviderProv 10001890 f   libvcruntime:telemetry.obj
 0001:000008a0       ?WrapPointer@?A0x37f5ce2d@@YA?AV?$Local@VValue@v8@@@v8@@PADI@Z 100018a0 f   binding.obj
 0001:00000940       ?WrapNullPointer@?A0x37f5ce2d@@YA?AV?$Local@VValue@v8@@@v8@@XZ 10001940 f   binding.obj
 0001:000009b0       ?ReadObject@?A0x37f5ce2d@@YAXABV?$FunctionCallbackInfo@VValue@v8@@@Nan@@@Z 100019b0 f   binding.obj
 0001:00000b30       ?WriteObject@?A0x37f5ce2d@@YAXABV?$FunctionCallbackInfo@VValue@v8@@@Nan@@@Z 10001b30 f   binding.obj
 0001:00000ce0       ?ReadPointer@?A0x37f5ce2d@@YAXABV?$FunctionCallbackInfo@VValue@v8@@@Nan@@@Z 10001ce0 f   binding.obj
 0001:00000e90       ?WritePointer@?A0x37f5ce2d@@YAXABV?$FunctionCallbackInfo@VValue@v8@@@Nan@@@Z 10001e90 f   binding.obj
 0001:00001070       ?ReadInt64@?A0x37f5ce2d@@YAXABV?$FunctionCallbackInfo@VValue@v8@@@Nan@@@Z 10002070 f   binding.obj
 0001:000012b0       ?WriteInt64@?A0x37f5ce2d@@YAXABV?$FunctionCallbackInfo@VValue@v8@@@Nan@@@Z 100022b0 f   binding.obj
 0001:00001490       ?ReadUInt64@?A0x37f5ce2d@@YAXABV?$FunctionCallbackInfo@VValue@v8@@@Nan@@@Z 10002490 f   binding.obj
 0001:000016d0       ?WriteUInt64@?A0x37f5ce2d@@YAXABV?$FunctionCallbackInfo@VValue@v8@@@Nan@@@Z 100026d0 f   binding.obj
 0001:000018b0       ?ReadCString@?A0x37f5ce2d@@YAXABV?$FunctionCallbackInfo@VValue@v8@@@Nan@@@Z 100028b0 f   binding.obj
 0001:00001a40       ?ReinterpretBuffer@?A0x37f5ce2d@@YAXABV?$FunctionCallbackInfo@VValue@v8@@@Nan@@@Z 10002a40 f   binding.obj
 0001:00001be0       ?ReinterpretBufferUntilZeros@?A0x37f5ce2d@@YAXABV?$FunctionCallbackInfo@VValue@v8@@@Nan@@@Z 10002be0 f   binding.obj
 0001:00003bb0       __register_binding         10004bb0 f   binding.obj
 0001:00003c70       _load_exe_hook@8           10004c70 f   win_delay_load_hook.obj
 0001:00003ecc       ?dllmain_crt_dispatch@@YGHQAUHINSTANCE__@@KQAX@Z 10004ecc f   LIBCMT:dll_dllmain.obj
 0001:00003f1f       ?dllmain_crt_process_attach@@YAHQAUHINSTANCE__@@QAX@Z 10004f1f f   LIBCMT:dll_dllmain.obj
 0001:00004031       ?dllmain_crt_process_detach@@YAH_N@Z 10005031 f   LIBCMT:dll_dllmain.obj
 0001:000040ae       ?dllmain_dispatch@@YAHQAUHINSTANCE__@@KQAX@Z 100050ae f   LIBCMT:dll_dllmain.obj
 0001:000041b7       ?dllmain_raw@@YGHQAUHINSTANCE__@@KQAX@Z 100051b7 f   LIBCMT:dll_dllmain.obj
 0001:00004440       ?find_pe_section@@YAPAU_IMAGE_SECTION_HEADER@@QAEI@Z 10005440 f   LIBCMT:utility.obj
 0001:000049b0       $$000000                   100059b0     LIBCMT:_sehprolg4_.obj
 0001:00004bb1       ?__telemetry_getfilename@@YAXPAUHINSTANCE__@@PA_WK@Z 10005bb1 f   libvcruntime:telemetry.obj
 0001:00004d50       _ValidateLocalCookies      10005d50 f   libvcruntime:_chandler4_.obj
 0001:00005070       $$000000                   10006070     libvcruntime:memset.obj
 0001:000051e7       ?try_get_function@@YAPAXW4function_id@?A0xbc5505c1@@QBDQBW4module_id@2@2@Z 100061e7 f   libvcruntime:winapi_downlevel.obj
 0001:00005287       ?try_get_module@@YAPAUHINSTANCE__@@W4module_id@?A0xbc5505c1@@@Z 10006287 f   libvcruntime:winapi_downlevel.obj
 0001:000055a0       $$000000                   100065a0     libvcruntime:_exsup4_.obj
 0001:00005630       __unwind_handler4          10006630 f   libvcruntime:_exsup4_.obj
 0001:000058a0       $$000000                   100068a0     libvcruntime:_exsup_.obj
 0001:000058c0       __unwind_handler           100068c0 f   libvcruntime:_exsup_.obj
 0001:00005a50       ??$common_vsnprintf_s@D@@YAH_KQADIIQBDQAU__crt_locale_pointers@@1@Z 10006a50 f   libucrt:output.obj
 0001:00005b54       ??$common_vsprintf@Vformat_validation_base@__crt_stdio_output@@D@@YAH_KQADIQBDQAU__crt_locale_pointers@@1@Z 10006b54 f   libucrt:output.obj
 0001:00005cd0       ??$common_vsprintf@Vstandard_base@__crt_stdio_output@@_W@@YAH_KQA_WIQB_WQAU__crt_locale_pointers@@QAD@Z 10006cd0 f   libucrt:output.obj
 0001:00006349       ??R<lambda_481dd5778c961fbcd3b60b650e9b9dc4>@@QBEHXZ 10007349 f   libucrt:output.obj
 0001:000066e4       $LN52                      100076e4     libucrt:output.obj
 0001:00006804       $LN54                      10007804     libucrt:output.obj
 0001:00006924       $LN54                      10007924     libucrt:output.obj
 0001:000076fa       $LN19                      100086fa     libucrt:output.obj
 0001:00009339       ??$common_assert_to_message_box@_W@@YAXQB_W0IQAX@Z 1000a339 f   libucrt:assert.obj
 0001:000093d5       ??$common_assert_to_message_box_build_string@_W@@YAXQA_WIQB_W1IQAX@Z 1000a3d5 f   libucrt:assert.obj
 0001:0000991a       ??$common_assert_to_stderr@_W@@YAXQB_W0I@Z 1000a91a f   libucrt:assert.obj
 0001:000099c5       ?common_assert_to_stderr_direct@@YAXQB_W0I@Z 1000a9c5 f   libucrt:assert.obj
 0001:00009a76       ?get_assert_format@@YAPB_W_W@Z 1000aa76 f   libucrt:assert.obj
 0001:00009b33       _memcpy_s                  1000ab33 f   libucrt:assert.obj
 0001:00009b33       _memcpy_s                  1000ab33 f   libucrt:assert.obj
 0001:00009b33       _memcpy_s                  1000ab33 f   libucrt:assert.obj
 0001:00009fdd       ?atexit_exception_filter@@YAHK@Z 1000afdd f   libucrt:exit.obj
 0001:00009ff0       ?common_exit@@YAXHW4_crt_exit_cleanup_mode@@W4_crt_exit_return_mode@@@Z 1000aff0 f   libucrt:exit.obj
 0001:0000a109       ?exit_process@@YAXI@Z      1000b109 f   libucrt:exit.obj
 0001:0000a121       ?is_managed_app@@YA_NXZ    1000b121 f   libucrt:exit.obj
 0001:0000a165       ?try_cor_exit_process@@YAXI@Z 1000b165 f   libucrt:exit.obj
 0001:0000a209       ??$common_initialize_environment_nolock@D@@YAHXZ 1000b209 f   libucrt:environment_initialization.obj
 0001:0000a262       ??$create_environment@D@@YAQAPADQAD@Z 1000b262 f   libucrt:environment_initialization.obj
 0001:0000a333       ??$free_environment@D@@YAXQAPAD@Z 1000b333 f   libucrt:environment_initialization.obj
 0001:0000a333       ??$free_environment@_W@@YAXQAPA_W@Z 1000b333 f   libucrt:environment_initialization.obj
 0001:0000a3a2       ??$uninitialize_environment_internal@D@@YAXAAPAPAD@Z 1000b3a2 f   libucrt:environment_initialization.obj
 0001:0000a3bd       ??$uninitialize_environment_internal@_W@@YAXAAPAPA_W@Z 1000b3bd f   libucrt:environment_initialization.obj
 0001:0000a433       ?common_onexit@@YAP6AHXZQAU_onexit_table_t@@Q6AHXZ@Z 1000b433 f   libucrt:onexit.obj
 0001:0000a72e       _initialize_global_variables 1000b72e f   libucrt:initialization.obj
 0001:0000a740       _initialize_c              1000b740 f   libucrt:initialization.obj
 0001:0000a75a       _uninitialize_global_state_isolation 1000b75a f   libucrt:initialization.obj
 0001:0000a75a       _uninitialize_c            1000b75a f   libucrt:initialization.obj
 0001:0000a75a       _initialize_environment    1000b75a f   libucrt:initialization.obj
 0001:0000a75a       _report_memory_leaks       1000b75a f   libucrt:initialization.obj
 0001:0000a75a       _initialize_global_state_isolation 1000b75a f   libucrt:initialization.obj
 0001:0000a75d       _uninitialize_environment  1000b75d f   libucrt:initialization.obj
 0001:0000a765       _initialize_pointers       1000b765 f   libucrt:initialization.obj
 0001:0000a7a2       _uninitialize_vcruntime    1000b7a2 f   libucrt:initialization.obj
 0001:0000a7ab       _uninitialize_allocated_memory 1000b7ab f   libucrt:initialization.obj
 0001:0000accc       ??$common_tox_l@$1?internal_isupper_l@@YA_NHQAU__crt_locale_pointers@@@Z$1?internal_map_lower@@YAHH0@Z@@YAHHKQAU__crt_locale_pointers@@@Z 1000bccc f   libucrt:tolower_toupper.obj
 0001:0000ae16       ?internal_isupper_l@@YA_NHQAU__crt_locale_pointers@@@Z 1000be16 f   libucrt:tolower_toupper.obj
 0001:0000b591       ?construct_ptd@@YAXQAU__acrt_ptd@@QAPAU__crt_locale_data@@@Z 1000c591 f   libucrt:per_thread_data.obj
 0001:0000b60a       ?destroy_fls@@YGXPAX@Z     1000c60a f   libucrt:per_thread_data.obj
 0001:0000b62b       ?destroy_ptd@@YAXQAU__acrt_ptd@@@Z 1000c62b f   libucrt:per_thread_data.obj
 0001:0000b6c6       ?replace_current_thread_locale_nolock@@YAXQAU__acrt_ptd@@QAU__crt_locale_data@@@Z 1000c6c6 f   libucrt:per_thread_data.obj
 0001:0000b970       ?fp_format_a@@YAHQBNPADIQADIH_NIQAU__crt_locale_pointers@@@Z 1000c970 f   libucrt:cvt.obj
 0001:0000bc73       ?fp_format_e@@YAHQBNQADI1IH_NIQAU__crt_locale_pointers@@@Z 1000cc73 f   libucrt:cvt.obj
 0001:0000bd0e       ?fp_format_e_internal@@YAHQADIH_NIQAU_strflt@@1QAU__crt_locale_pointers@@@Z 1000cd0e f   libucrt:cvt.obj
 0001:0000be59       ?fp_format_f@@YAHQBNQADI1IHQAU__crt_locale_pointers@@@Z 1000ce59 f   libucrt:cvt.obj
 0001:0000bee6       ?fp_format_f_internal@@YAHQADIHQAU_strflt@@_NQAU__crt_locale_pointers@@@Z 1000cee6 f   libucrt:cvt.obj
 0001:0000bfbd       ?fp_format_g@@YAHQBNQADI1IH_NIQAU__crt_locale_pointers@@@Z 1000cfbd f   libucrt:cvt.obj
 0001:0000c085       ?fp_format_nan_or_infinity@@YAHW4__acrt_fp_class@@_NPADI1@Z 1000d085 f   libucrt:cvt.obj
 0001:0000c17d       ?shift_bytes@@YAXQADI0H@Z  1000d17d f   libucrt:cvt.obj
 0001:0000c2fb       ?fputwc_binary_nolock@@YAG_WV__crt_stdio_stream@@@Z 1000d2fb f   libucrt:fputwc.obj
 0001:0000c74e       ?initialize_inherited_file_handles_nolock@@YAXXZ 1000d74e f   libucrt:ioinit.obj
 0001:0000c804       ?initialize_stdio_handles_nolock@@YAXXZ 1000d804 f   libucrt:ioinit.obj
 0001:0000ca99       ??$common_xtox@K_W@@YAHKQA_WII_N@Z 1000da99 f   libucrt:xtoa.obj
 0001:0000cb27       ??$common_xtox_s@K_W@@YAHKQA_WII_N@Z 1000db27 f   libucrt:xtoa.obj
 0001:0000ccd3       ??$common_tcsncat_s@_W@@YAHQA_WIQB_WI@Z 1000dcd3 f   libucrt:wcsncat_s.obj
 0001:0000cdc7       ??$common_show_message_box@_W@@YAHQB_W0I@Z 1000ddc7 f   libucrt:crtmbox.obj
 0001:0000cea0       ??$message_box_wait_thread@_W@@YGKQAX@Z 1000dea0 f   libucrt:crtmbox.obj
 0001:0000cf81       _common_flush_all          1000df81 f   libucrt:fflush.obj
 0001:0000d12b       ??R<lambda_b721fa326cdb32351d23dfa67958c160>@@QBEHXZ 1000e12b f   libucrt:setvbuf.obj
 0001:0000d1c5       ?set_buffer@@YAHV__crt_stdio_stream@@QADIH@Z 1000e1c5 f   libucrt:setvbuf.obj
 0001:0000d2f0       ?get_global_action_nolock@@YAPAP6AXH@ZH@Z 1000e2f0 f   libucrt:signal.obj
 0001:0000d332       ?siglookup@@YAPAU__crt_signal_action_t@@HQAU1@@Z 1000e332 f   libucrt:signal.obj
 0001:0000d6c8       ??R<lambda_ad1ced32f4ac17aa236e5ef05d6b3b7c>@@QBEXXZ 1000e6c8 f   libucrt:mbctype.obj
 0001:0000d78c       ?CPtoLocaleName@@YAPB_WH@Z 1000e78c f   libucrt:mbctype.obj
 0001:0000d7ca       ?getSystemCP@@YAHH@Z       1000e7ca f   libucrt:mbctype.obj
 0001:0000d83d       ?setSBCS@@YAXPAU__crt_multibyte_data@@@Z 1000e83d f   libucrt:mbctype.obj
 0001:0000d8a2       ?setSBUpLow@@YAXPAU__crt_multibyte_data@@@Z 1000e8a2 f   libucrt:mbctype.obj
 0001:0000da36       ?setmbcp_internal@@YAHH_N@Z 1000ea36 f   libucrt:mbctype.obj
 0001:0000dde8       ?find_end_of_double_null_terminated_sequence@@YAPB_WQB_W@Z 1000ede8 f   libucrt:get_environment_from_os.obj
 0001:0000df1a       ?try_get_MessageBoxA@@YAP6GHPAUHWND__@@PBD1I@ZXZ 1000ef1a f   libucrt:winapi_thunks.obj
 0001:0000df34       ?try_get_MessageBoxW@@YAP6GHPAUHWND__@@PB_W1I@ZXZ 1000ef34 f   libucrt:winapi_thunks.obj
 0001:0000df4e       ?try_get_function@@YAPAXW4function_id@?A0x91c8d113@@QBDQBW4module_id@2@2@Z 1000ef4e f   libucrt:winapi_thunks.obj
 0001:0000dfea       ?try_get_module@@YAPAUHINSTANCE__@@W4module_id@?A0x91c8d113@@@Z 1000efea f   libucrt:winapi_thunks.obj
 0001:0000e729       ?__acrt_LCMapStringA_stat@@YAHPAU__crt_locale_pointers@@PB_WKPBDHPADHHH@Z 1000f729 f   libucrt:lcmapstringa.obj
 0001:00010814       $LN838                     10011814     libucrt:cfout.obj
 0001:00010824       ??$common_flush_and_write_nolock@D@@YAHHV__crt_stdio_stream@@@Z 10011824 f   libucrt:_flsbuf.obj
 0001:00010935       ??$common_flush_and_write_nolock@_W@@YAHHV__crt_stdio_stream@@@Z 10011935 f   libucrt:_flsbuf.obj
 0001:00010a4a       ??$write_buffer_nolock@D@@YA_NDV__crt_stdio_stream@@@Z 10011a4a f   libucrt:_flsbuf.obj
 0001:00010b16       ??$write_buffer_nolock@_W@@YA_N_WV__crt_stdio_stream@@@Z 10011b16 f   libucrt:_flsbuf.obj
 0001:00010e9b       ??$free_crt_array@D$06@@YAXAAY06PAD@Z 10011e9b f   libucrt:inittime.obj
 0001:00010e9b       ??$free_crt_array@_W$06@@YAXAAY06PA_W@Z 10011e9b f   libucrt:inittime.obj
 0001:00010ed4       ??$free_crt_array@D$0M@@@YAXAAY0M@PAD@Z 10011ed4 f   libucrt:inittime.obj
 0001:00010ed4       ??$free_crt_array@_W$0M@@@YAXAAY0M@PA_W@Z 10011ed4 f   libucrt:inittime.obj
 0001:00011510       ?write_double_translated_ansi_nolock@@YA?AUwrite_result@?A0xac24f278@@HQBDI@Z 10012510 f   libucrt:write.obj
 0001:000116c3       ?write_double_translated_unicode_nolock@@YA?AUwrite_result@?A0xac24f278@@QBDI@Z 100126c3 f   libucrt:write.obj
 0001:00011730       ?write_requires_double_translation_nolock@@YA_NH@Z 10012730 f   libucrt:write.obj
 0001:000117a6       ?write_text_ansi_nolock@@YA?AUwrite_result@?A0xac24f278@@HQBDI@Z 100127a6 f   libucrt:write.obj
 0001:00011885       ?write_text_utf16le_nolock@@YA?AUwrite_result@?A0xac24f278@@HQBDI@Z 10012885 f   libucrt:write.obj
 0001:00011973       ?write_text_utf8_nolock@@YA?AUwrite_result@?A0xac24f278@@HQBDI@Z 10012973 f   libucrt:write.obj
 0001:00011d97       ?initialize_multibyte@@YAHXZ 10012d97 f   libucrt:multibyte_initializer.obj
 0001:00011e42       ?GetTableIndexFromLocaleName@@YAHPB_W@Z 10012e42 f   libucrt:lcidtoname_downlevel.obj
 0001:00012000       $$000000                   10013000     libucrt:log10.obj
 0001:00012150       $$000000                   10013150     libucrt:ceil_pentium4.obj
 0001:0001226d       ??$common_lseek@_J@@YA_JH_JH@Z 1001326d f   libucrt:lseek.obj
 0001:00012372       ??$common_lseek_nolock@_J@@YA_JH_JH@Z 10013372 f   libucrt:lseek.obj
 0001:00012a80       $$000000                   10013a80     libucrt:log10_pentium4.obj
 0001:00012d10       $$000000                   10013d10     libucrt:87tran.obj
 0001:00012f10       $$000000                   10013f10     libucrt:87disp.obj
 0001:00013110       $$000000                   10014110     libucrt:common.obj
 0001:000132a0       $$000000                   100142a0     libucrt:genexcep.obj
 0001:00013800       $$000000                   10014800     libucrt:_strnicm.obj
 0001:00014b70       $$000000                   10015b70     LIBCMT:ulldvrm.obj
 0001:00014c10       $$000000                   10015c10     LIBCMT:llmul.obj
 0001:00014c50       $$000000                   10015c50     LIBCMT:_sehprolg4gs_.obj
 0001:00014cb0       $$000000                   10015cb0     LIBCMT:lldvrm.obj
 0001:00014d90       $$000000                   10015d90     LIBCMT:ullshr.obj
 0001:00014db0       $$000000                   10015db0     LIBCMT:alloca16.obj
 0001:00014de0       $$000000                   10015de0     LIBCMT:llshl.obj
 0001:00014e00       $$000000                   10015e00     LIBCMT:_ftol2_.obj
 0001:00014ec0       $$000000                   10015ec0     LIBCMT:chkstk.obj
 0001:00014ef0       $$000000                   10015ef0     libvcruntime:memcpy.obj
 0001:00015154       TrailingUpVec              10016154     libvcruntime:memcpy.obj
 0001:00015200       TrailingDownVec            10016200     libvcruntime:memcpy.obj
 0001:00015470       $$000000                   10016470     libvcruntime:memmove.obj
 0001:000156d4       TrailingUpVec              100166d4     libvcruntime:memmove.obj
 0001:00015780       TrailingDownVec            10016780     libvcruntime:memmove.obj
 0001:000159f0       $$000000                   100169f0     libvcruntime:strrchr.obj
 0001:00015b30       $$000000                   10016b30     libvcruntime:strchr.obj
 0001:00015c60       $$000000                   10016c60     LIBCMT:_ftol3_.obj
 0002:00000170       _GS_ExceptionPointers      10018170     LIBCMT:gs_report.obj
 0002:0000020c       ?ExceptionTemplate@?1??_CxxThrowException@@9@8@4UEHExceptionRecord@@B 1001820c     libvcruntime:throw.obj
 0002:0000022c       ?module_names@?A0xbc5505c1@@3QBQB_WB 1001822c     libvcruntime:winapi_downlevel.obj
 0002:000002dc       ?candidate_modules@?1??try_get_EventRegister@@YAP6GKPBU_GUID@@P6GX0KE_K1PAU_EVENT_FILTER_DESCRIPTOR@@PAX@Z3PA_K@ZXZ@4QBW4module_id@?A0xbc5505c1@@B 100182dc     libvcruntime:winapi_downlevel.obj
 0002:000002f0       ?candidate_modules@?1??try_get_EventSetInformation@@YAP6GK_KW4_EVENT_INFO_CLASS@@PAXK@ZXZ@4QBW4module_id@?A0xbc5505c1@@B 100182f0     libvcruntime:winapi_downlevel.obj
 0002:00000308       ?candidate_modules@?1??try_get_EventUnregister@@YAP6GK_K@ZXZ@4QBW4module_id@?A0xbc5505c1@@B 10018308     libvcruntime:winapi_downlevel.obj
 0002:0000031c       ?candidate_modules@?1??try_get_EventWriteTransfer@@YAP6GK_KPBU_EVENT_DESCRIPTOR@@PBU_GUID@@2KPAU_EVENT_DATA_DESCRIPTOR@@@ZXZ@4QBW4module_id@?A0xbc5505c1@@B 1001831c     libvcruntime:winapi_downlevel.obj
 0002:00000334       ?candidate_modules@?1??try_get_FlsAlloc@@YAP6GKP6GXPAX@Z@ZXZ@4QBW4module_id@?A0xbc5505c1@@B 10018334     libvcruntime:winapi_downlevel.obj
 0002:00000348       ?candidate_modules@?1??try_get_FlsFree@@YAP6GHK@ZXZ@4QBW4module_id@?A0xbc5505c1@@B 10018348     libvcruntime:winapi_downlevel.obj
 0002:00000358       ?candidate_modules@?1??try_get_FlsGetValue@@YAP6GPAXK@ZXZ@4QBW4module_id@?A0xbc5505c1@@B 10018358     libvcruntime:winapi_downlevel.obj
 0002:0000036c       ?candidate_modules@?1??try_get_FlsSetValue@@YAP6GHKPAX@ZXZ@4QBW4module_id@?A0xbc5505c1@@B 1001836c     libvcruntime:winapi_downlevel.obj
 0002:00000380       ?candidate_modules@?1??try_get_InitializeCriticalSectionEx@@YAP6GHPAU_RTL_CRITICAL_SECTION@@KK@ZXZ@4QBW4module_id@?A0xbc5505c1@@B 10018380     libvcruntime:winapi_downlevel.obj
 0002:000003a8       ?tokenTable@@3QBQBDB       100183a8     libvcruntime:undname.obj
 0002:000003e0       ?nameTable@@3QBQBDB        100183e0     libvcruntime:undname.obj
 0002:00000524       ?rttiTable@@3QBQBDB        10018524     libvcruntime:undname.obj
 0002:00000f60       ___acrt_initializers       10018f60     libucrt:initialization.obj
 0002:00001b88       __mb_locale_names          10019b88     libucrt:mbctype.obj
 0002:00001bc8       _module_names              10019bc8     libucrt:winapi_thunks.obj
 0002:00002068       ?candidate_modules@?1??try_get_FlsAlloc@@YAP6GKP6GXPAX@Z@ZXZ@4QBW4module_id@?A0x91c8d113@@B 1001a068     libucrt:winapi_thunks.obj
 0002:00002070       ?candidate_modules@?1??try_get_FlsFree@@YAP6GHK@ZXZ@4QBW4module_id@?A0x91c8d113@@B 1001a070     libucrt:winapi_thunks.obj
 0002:00002078       ?candidate_modules@?1??try_get_FlsGetValue@@YAP6GPAXK@ZXZ@4QBW4module_id@?A0x91c8d113@@B 1001a078     libucrt:winapi_thunks.obj
 0002:00002080       ?candidate_modules@?1??try_get_FlsSetValue@@YAP6GHKPAX@ZXZ@4QBW4module_id@?A0x91c8d113@@B 1001a080     libucrt:winapi_thunks.obj
 0002:00002088       ?candidate_modules@?1??try_get_GetActiveWindow@@YAP6GPAUHWND__@@XZXZ@4QBW4module_id@?A0x91c8d113@@B 1001a088     libucrt:winapi_thunks.obj
 0002:000020a0       ?candidate_modules@?1??try_get_GetCurrentPackageId@@YAP6GJPAIPAE@ZXZ@4QBW4module_id@?A0x91c8d113@@B 1001a0a0     libucrt:winapi_thunks.obj
 0002:000020bc       ?candidate_modules@?1??try_get_GetLastActivePopup@@YAP6GPAUHWND__@@PAU2@@ZXZ@4QBW4module_id@?A0x91c8d113@@B 1001a0bc     libucrt:winapi_thunks.obj
 0002:000020d8       ?candidate_modules@?1??try_get_GetProcessWindowStation@@YAP6GPAUHWINSTA__@@XZXZ@4QBW4module_id@?A0x91c8d113@@B 1001a0d8     libucrt:winapi_thunks.obj
 0002:000020f8       ?candidate_modules@?1??try_get_GetUserObjectInformationW@@YAP6GHPAXH0KPAK@ZXZ@4QBW4module_id@?A0x91c8d113@@B 1001a0f8     libucrt:winapi_thunks.obj
 0002:0000211c       ?candidate_modules@?1??try_get_InitializeCriticalSectionEx@@YAP6GHPAU_RTL_CRITICAL_SECTION@@KK@ZXZ@4QBW4module_id@?A0x91c8d113@@B 1001a11c     libucrt:winapi_thunks.obj
 0002:00002124       ?candidate_modules@?1??try_get_LCMapStringEx@@YAP6GHPB_WK0HPA_WHPAU_nlsversioninfo@@PAXJ@ZXZ@4QBW4module_id@?A0x91c8d113@@B 1001a124     libucrt:winapi_thunks.obj
 0002:0000213c       ?candidate_modules@?1??try_get_LocaleNameToLCID@@YAP6GKPB_WK@ZXZ@4QBW4module_id@?A0x91c8d113@@B 1001a13c     libucrt:winapi_thunks.obj
 0002:00002158       ?candidate_modules@?1??try_get_MessageBoxA@@YAP6GHPAUHWND__@@PBD1I@ZXZ@4QBW4module_id@?A0x91c8d113@@B 1001a158     libucrt:winapi_thunks.obj
 0002:0000216c       ?candidate_modules@?1??try_get_MessageBoxW@@YAP6GHPAUHWND__@@PB_W1I@ZXZ@4QBW4module_id@?A0x91c8d113@@B 1001a16c     libucrt:winapi_thunks.obj
 0002:00002b70       _LcidToLocaleNameTable     1001ab70     libucrt:lcidtoname_downlevel.obj
 0002:00003c90       _LocaleNameToIndexTable    1001bc90     libucrt:lcidtoname_downlevel.obj
 0002:00004be0       _One                       1001cbe0     libucrt:ceil_pentium4.obj
 0002:00004bf0       _Bns                       1001cbf0     libucrt:ceil_pentium4.obj
 0002:00004c00       _Zero                      1001cc00     libucrt:ceil_pentium4.obj
 0002:00004c10       _S                         1001cc10     libucrt:ceil_pentium4.obj
 0002:00004c20       _NegZero                   1001cc20     libucrt:ceil_pentium4.obj
 0002:00004c30       emask                      1001cc30     libucrt:log10_pentium4.obj
 0002:00004c40       CC                         1001cc40     libucrt:log10_pentium4.obj
 0002:00004c50       Magic                      1001cc50     libucrt:log10_pentium4.obj
 0002:00004c60       hi_mask                    1001cc60     libucrt:log10_pentium4.obj
 0002:00004c70       LOG10_2                    1001cc70     libucrt:log10_pentium4.obj
 0002:00004c80       place_L                    1001cc80     libucrt:log10_pentium4.obj
 0002:00004ca0       One                        1001cca0     libucrt:log10_pentium4.obj
 0002:00004cb0       Zero                       1001ccb0     libucrt:log10_pentium4.obj
 0002:00004cc0       Two52                      1001ccc0     libucrt:log10_pentium4.obj
 0002:00004cd0       Infs                       1001ccd0     libucrt:log10_pentium4.obj
 0002:00004ce0       NaN                        1001cce0     libucrt:log10_pentium4.obj
 0002:00004cf0       coeff                      1001ccf0     libucrt:log10_pentium4.obj
 0002:00004d30       T_Tbl                      1001cd30     libucrt:log10_pentium4.obj
 0002:00005140       CB_Tbl                     1001d140     libucrt:log10_pentium4.obj
 0002:0000556e       _log2max                   1001d56e     libucrt:87tran.obj
 0002:00005578       _smallarg                  1001d578     libucrt:87tran.obj
 0002:00005582       _half                      1001d582     libucrt:87tran.obj
 0002:000055ce       One                        1001d5ce     libucrt:87disp.obj
 0002:000055d6       Three                      1001d5d6     libucrt:87disp.obj
 0002:000055de       XAMtoTagTab                1001d5de     libucrt:87disp.obj
 0002:000055f0       One                        1001d5f0     libucrt:common.obj
 0002:00005604       DblMax                     1001d604     libucrt:common.obj
 0002:0000560c       DblMin                     1001d60c     libucrt:common.obj
 0002:00005614       IeeeAdjO                   1001d614     libucrt:common.obj
 0002:0000561c       IeeeAdjU                   1001d61c     libucrt:common.obj
 0002:00005624       _infinity                  1001d624     libucrt:common.obj
 0002:0000562c       _zero                      1001d62c     libucrt:common.obj
 0002:00005ed0       _Int32ToUInt32             1001ded0     LIBCMT:_ftol3_.obj
 0002:00005ee0       _MantissaMask              1001dee0     LIBCMT:_ftol3_.obj
 0002:00005ee8       _IntegerBit                1001dee8     LIBCMT:_ftol3_.obj
 0002:00005ef0       _SignBit64                 1001def0     LIBCMT:_ftol3_.obj
 0002:00005ef8       _MinFP64                   1001def8     LIBCMT:_ftol3_.obj
 0002:00005f00       _MinInt64                  1001df00     LIBCMT:_ftol3_.obj
 0002:00005f08       _MaxInt64                  1001df08     LIBCMT:_ftol3_.obj
 0002:00005f10       _MaxUInt64                 1001df10     LIBCMT:_ftol3_.obj
 0002:00005f18       _MaxFP32                   1001df18     LIBCMT:_ftol3_.obj
 0002:00005f20       _MinFP32                   1001df20     LIBCMT:_ftol3_.obj
 0002:00005f28       _MinSubInexact             1001df28     LIBCMT:_ftol3_.obj
 0002:00005f30       _FpExcptTable              1001df30     LIBCMT:_ftol3_.obj
 0002:00005f40       _i1075                     1001df40     LIBCMT:_ftol3_.obj
 0002:00005f44       _i1087                     1001df44     LIBCMT:_ftol3_.obj
 0002:00005f48       _x0800                     1001df48     LIBCMT:_ftol3_.obj
 0002:00005f4c       _x17FF                     1001df4c     LIBCMT:_ftol3_.obj
 0002:00005f50       _CWMask                    1001df50     LIBCMT:_ftol3_.obj
 0002:00006170       ?_TlgEvent@?3??__telemetry_main_invoke_trigger@@9@4U<unnamed-type-_TlgEvent>@?3??1@9@B 1001e170     libvcruntime:telemetry.obj
 0002:000061ac       ?_TlgEvent@?3??__telemetry_main_return_trigger@@9@4U<unnamed-type-_TlgEvent>@?3??1@9@B 1001e1ac     libvcruntime:telemetry.obj
 0002:000061e7       ?_Tlg_Microsoft_CRTProviderProv_Meta@@3U<unnamed-type-_Tlg_Microsoft_CRTProviderProv_Meta>@@B 1001e1e7     libvcruntime:telemetry.obj
 0002:00006228       __sehtable$?dllmain_crt_process_attach@@YAHQAUHINSTANCE__@@QAX@Z 1001e228     LIBCMT:dll_dllmain.obj
 0002:00006248       __sehtable$?dllmain_crt_process_detach@@YAH_N@Z 1001e248     LIBCMT:dll_dllmain.obj
 0002:00006268       __sehtable$?dllmain_dispatch@@YAHQAUHINSTANCE__@@KQAX@Z 1001e268     LIBCMT:dll_dllmain.obj
 0002:00006318       __sehtable$___scrt_is_nonwritable_in_current_image 1001e318     LIBCMT:utility.obj
 0002:00006338       __sehtable$??$?RV<lambda_ab9923ffb5d694ec0d78876dd103e44f>@@AAV<lambda_481dd5778c961fbcd3b60b650e9b9dc4>@@V<lambda_7923d86c9e3f319b415918ec4b39749c>@@@?$__crt_seh_guarded_call@H@@QAEH$$QAV<lambda_ab9923ffb5d694ec0d78876dd103e44f>@@AAV<lambda_481dd5778c961fbcd3b60b650e9b9dc4>@@$$QAV<lambda_7923d86c9e3f319b415918ec4b39749c>@@@Z 1001e338     libucrt:output.obj
 0002:00006358       __sehtable$__query_new_handler 1001e358     libucrt:new_handler.obj
 0002:00006378       __sehtable$?common_exit@@YAXHW4_crt_exit_cleanup_mode@@W4_crt_exit_return_mode@@@Z 1001e378     libucrt:exit.obj
 0002:000063a0       __sehtable$?common_onexit@@YAP6AHXZQAU_onexit_table_t@@Q6AHXZ@Z 1001e3a0     libucrt:onexit.obj
 0002:000063c0       __sehtable$_terminate      1001e3c0     libucrt:terminate.obj
 0002:000063e0       __sehtable$??$?RV<lambda_9df27f884b057bc3edfc946cb5b7cf47>@@AAV<lambda_e69574bed617af4e071282c136b37893>@@V<lambda_cc0d902bcbbeb830f749456577db4721>@@@?$__crt_seh_guarded_call@X@@QAEX$$QAV<lambda_9df27f884b057bc3edfc946cb5b7cf47>@@AAV<lambda_e69574bed617af4e071282c136b37893>@@$$QAV<lambda_cc0d902bcbbeb830f749456577db4721>@@@Z 1001e3e0     libucrt:per_thread_data.obj
 0002:00006400       __sehtable$??$?RV<lambda_3518db117f0e7cdb002338c5d3c47b6c>@@AAV<lambda_b2ea41f6bbb362cd97d94c6828d90b61>@@V<lambda_abdedf541bb04549bc734292b4a045d4>@@@?$__crt_seh_guarded_call@X@@QAEX$$QAV<lambda_3518db117f0e7cdb002338c5d3c47b6c>@@AAV<lambda_b2ea41f6bbb362cd97d94c6828d90b61>@@$$QAV<lambda_abdedf541bb04549bc734292b4a045d4>@@@Z 1001e400     libucrt:per_thread_data.obj
 0002:00006420       __sehtable$??$?RV<lambda_51b6e8b1eb166f2a3faf91f424b38130>@@AAV<lambda_6250bd4b2a391816dd638c3bf72b0bcb>@@V<lambda_0b5a4a3e68152e1d9b943535f5f47bed>@@@?$__crt_seh_guarded_call@X@@QAEX$$QAV<lambda_51b6e8b1eb166f2a3faf91f424b38130>@@AAV<lambda_6250bd4b2a391816dd638c3bf72b0bcb>@@$$QAV<lambda_0b5a4a3e68152e1d9b943535f5f47bed>@@@Z 1001e420     libucrt:per_thread_data.obj
 0002:00006440       __sehtable$??$?RV<lambda_5b71d36f03204c0beab531769a5b5694>@@AAV<lambda_be2b3da3f62db62e9dad5dc70221a656>@@V<lambda_8f9ce462984622f9bf76b59e2aaaf805>@@@?$__crt_seh_guarded_call@X@@QAEX$$QAV<lambda_5b71d36f03204c0beab531769a5b5694>@@AAV<lambda_be2b3da3f62db62e9dad5dc70221a656>@@$$QAV<lambda_8f9ce462984622f9bf76b59e2aaaf805>@@@Z 1001e440     libucrt:per_thread_data.obj
 0002:00006460       __sehtable$___acrt_uninitialize_locale 1001e460     libucrt:wsetlocale.obj
 0002:00006480       __sehtable$___acrt_initialize_lowio 1001e480     libucrt:ioinit.obj
 0002:000064a0       __sehtable$_fflush         1001e4a0     libucrt:fflush.obj
 0002:000064c0       __sehtable$_common_flush_all 1001e4c0     libucrt:fflush.obj
 0002:000064e8       __sehtable$??$?RV<lambda_d92cfe8357b99225085016881b624cb0>@@AAV<lambda_b721fa326cdb32351d23dfa67958c160>@@V<lambda_42d75b0848218ec137fa420c8ba9fdf9>@@@?$__crt_seh_guarded_call@H@@QAEH$$QAV<lambda_d92cfe8357b99225085016881b624cb0>@@AAV<lambda_b721fa326cdb32351d23dfa67958c160>@@$$QAV<lambda_42d75b0848218ec137fa420c8ba9fdf9>@@@Z 1001e4e8     libucrt:setvbuf.obj
 0002:00006508       __sehtable$_raise          1001e508     libucrt:signal.obj
 0002:00006528       __sehtable$??$?RV<lambda_a048d3beccc847880fc8490e18b82769>@@AAV<lambda_ec61778202f4f5fc7e7711acc23c3bca>@@V<lambda_f7496a158712204296dd6628a163878e>@@@?$__crt_seh_guarded_call@P6AXH@Z@@QAEP6AXH@Z$$QAV<lambda_a048d3beccc847880fc8490e18b82769>@@AAV<lambda_ec61778202f4f5fc7e7711acc23c3bca>@@$$QAV<lambda_f7496a158712204296dd6628a163878e>@@@Z 1001e528     libucrt:signal.obj
 0002:00006548       __sehtable$___acrt_update_thread_multibyte_data 1001e548     libucrt:mbctype.obj
 0002:00006568       __sehtable$??$?RV<lambda_978dc153c237d78434369da87b74ff60>@@AAV<lambda_ad1ced32f4ac17aa236e5ef05d6b3b7c>@@V<lambda_4a8533e2866a575feecb8298ce776b0d>@@@?$__crt_seh_guarded_call@X@@QAEX$$QAV<lambda_978dc153c237d78434369da87b74ff60>@@AAV<lambda_ad1ced32f4ac17aa236e5ef05d6b3b7c>@@$$QAV<lambda_4a8533e2866a575feecb8298ce776b0d>@@@Z 1001e568     libucrt:mbctype.obj
 0002:00006588       __sehtable$___acrt_update_thread_locale_data 1001e588     libucrt:locale_refcounting.obj
 0002:000065a8       __sehtable$__fcloseall     1001e5a8     libucrt:closeall.obj
 0002:000065c8       __sehtable$___acrt_lowio_ensure_fh_exists 1001e5c8     libucrt:osfinfo.obj
 0002:000065e8       __sehtable$??$?RV<lambda_61cee617f5178ae960314fd4d05640a0>@@AAV<lambda_6978c1fb23f02e42e1d9e99668cc68aa>@@V<lambda_9cd88cf8ad10232537feb2133f08c833>@@@?$__crt_seh_guarded_call@H@@QAEH$$QAV<lambda_61cee617f5178ae960314fd4d05640a0>@@AAV<lambda_6978c1fb23f02e42e1d9e99668cc68aa>@@$$QAV<lambda_9cd88cf8ad10232537feb2133f08c833>@@@Z 1001e5e8     libucrt:commit.obj
 0002:00006608       __sehtable$__write         1001e608     libucrt:write.obj
 0002:00006628       __sehtable$??$common_lseek@_J@@YA_JH_JH@Z 1001e628     libucrt:lseek.obj
 0002:00006648       __sehtable$_fclose         1001e648     libucrt:fclose.obj
 0002:00006668       __sehtable$??$?RV<lambda_123407a5e2ac06da108355a851863b7a>@@AAV<lambda_2fe9b910cf3cbf4a0ab98a02ba45b3ec>@@V<lambda_ae55bdf541ad94d75914d381c370e64d>@@@?$__crt_seh_guarded_call@H@@QAEH$$QAV<lambda_123407a5e2ac06da108355a851863b7a>@@AAV<lambda_2fe9b910cf3cbf4a0ab98a02ba45b3ec>@@$$QAV<lambda_ae55bdf541ad94d75914d381c370e64d>@@@Z 1001e668     libucrt:close.obj
 0002:00006688       __sehtable$__IsNonwritableInCurrentImage 1001e688     LIBCMT:pesect.obj
 0002:00007350       .edata                     1001f350     binding.exp
 0002:00007378       rgpv                       1001f378     binding.exp
 0002:0000737c       rgszName                   1001f37c     binding.exp
 0002:00007380       rgwOrd                     1001f380     binding.exp
 0002:00007382       szName                     1001f382     binding.exp
 0002:0000738f       $N00001                    1001f38f     binding.exp
 0002:00007514       .idata$6                   1001f514     kernel32:KERNEL32.dll
 0002:000079e4       .idata$6                   1001f9e4     advapi32:ADVAPI32.dll
 0003:00000018       ?_Tlg_Microsoft_CRTProviderProv@@3U_TlgProvider_t@@A 10020018     libvcruntime:telemetry.obj
 0003:00000060       ?__vcrt_flsindex@@3KA      10020060     libvcruntime:per_thread_data.obj
 0003:00000080       _errtable                  10020080     libucrt:errno.obj
 0003:000001e8       _errno_no_memory           100201e8     libucrt:errno.obj
 0003:000001ec       _doserrno_no_memory        100201ec     libucrt:errno.obj
 0003:000001f4       ___acrt_flsindex           100201f4     libucrt:per_thread_data.obj
 0003:00000934       ___rgctypeflag             10020934     libucrt:mbctype.obj
 0003:00000938       ___rgcode_page_info        10020938     libucrt:mbctype.obj
 0003:00000a90       LOG_name                   10020a90     libucrt:log10.obj
 0003:00000aa0       _newcw                     10020aa0     libucrt:ceil.obj
 0003:00000ab0       _over                      10020ab0     libucrt:fpctrl.obj
 0003:00000abc       _under                     10020abc     libucrt:fpctrl.obj
 0003:00000ac8       ?_names@?1??_get_fname@@9@9 10020ac8     libucrt:fpexcept.obj
 0003:00000be0       __module                   10020be0     binding.obj
 0003:00000d3c       ?__proc_attached@@3HA      10020d3c     LIBCMT:dll_dllmain.obj
 0003:00000d40       _GS_ExceptionRecord        10020d40     LIBCMT:gs_report.obj
 0003:00000d90       _GS_ContextRecord          10020d90     LIBCMT:gs_report.obj
 0003:00001064       ?module_local_atexit_table@@3U_onexit_table_t@@A 10021064     LIBCMT:utility.obj
 0003:00001070       ?module_local_at_quick_exit_table@@3U_onexit_table_t@@A 10021070     LIBCMT:utility.obj
 0003:0000107c       ?is_initialized_as_dll@@3_NA 1002107c     LIBCMT:utility.obj
 0003:0000109c       ?module_handles@@3PAPAUHINSTANCE__@@A 1002109c     libvcruntime:winapi_downlevel.obj
 0003:000010ac       ?encoded_function_pointers@@3PAPAXA 100210ac     libvcruntime:winapi_downlevel.obj
 0003:000010d0       ?__vcrt_startup_thread_ptd@@3U__vcrt_ptd@@A 100210d0     libvcruntime:per_thread_data.obj
 0003:000010f8       ___vcrt_lock_table         100210f8     libvcruntime:locks.obj
 0003:00001110       ___vcrt_locks_initialized  10021110     libvcruntime:locks.obj
 0003:00001140       ?heap@@3V_HeapManager@@A   10021140     libvcruntime:undname.obj
 0003:00001154       ___acrt_new_handler        10021154     libucrt:new_handler.obj
 0003:00001158       _c_termination_complete    10021158     libucrt:exit.obj
 0003:0000115c       _thread_local_exit_callback_func 1002115c     libucrt:exit.obj
 0003:00001160       ?c_exit_complete@?5??common_exit@@YAXHW4_crt_exit_cleanup_mode@@W4_crt_exit_return_mode@@@Z@4_NA 10021160     libucrt:exit.obj
 0003:0000118c       ___acrt_invalid_parameter_handler 1002118c     libucrt:invalid_parameter.obj
 0003:00001198       __bufin                    10021198     libucrt:_file.obj
 0003:0000219c       _enable_percent_n          1002219c     libucrt:printf_count_output.obj
 0003:000023b4       ___acrt_app_type           100223b4     libucrt:report_runtime_error.obj
 0003:000023b8       ___acrt_error_mode         100223b8     libucrt:set_error_mode.obj
 0003:000023bc       _ctrlc_action              100223bc     libucrt:signal.obj
 0003:000023c0       _ctrlbreak_action          100223c0     libucrt:signal.obj
 0003:000023c4       _abort_action              100223c4     libucrt:signal.obj
 0003:000023c8       _term_action               100223c8     libucrt:signal.obj
 0003:000023d0       ___acrt_lock_table         100223d0     libucrt:locks.obj
 0003:00002508       ___acrt_locks_initialized  10022508     libucrt:locks.obj
 0003:00002520       _fSystemSet                10022520     libucrt:mbctype.obj
 0003:00002528       ?initialized@?1??__acrt_initialize_multibyte@@9@4_NA 10022528     libucrt:mbctype.obj
 0003:00002530       _module_handles            10022530     libucrt:winapi_thunks.obj
 0003:00002580       _encoded_function_pointers 10022580     libucrt:winapi_thunks.obj
 0003:00002600       ?state_cache@?1??__acrt_is_packaged_app@@9@4JA 10022600     libucrt:winapi_thunks.obj
 0003:00002618       _user_matherr              10022618     libucrt:matherr.obj
 0003:0000261c       ___acrt_global_new_mode    1002261c     libucrt:new_mode.obj
 0003:00002620       ?zero@?CG@???$convert_to_fos_high_precision@N@@YAXNIQAHQADI@Z@4Ubig_integer@__crt_strtox@@B 10022620     libucrt:cfout.obj
 0003:000027f0       ?$S1@?CG@???$convert_to_fos_high_precision@N@@YAXNIQAHQADI@Z@4IA 100227f0     libucrt:cfout.obj
 0003:00002800       __pmatherr_set             10022800     libucrt:libm_error.obj
 0004:00000060       $R000000                   10023060     * linker generated manifest res *

 Exports

  ordinal    name

        1    __register_binding_
               exported name: _register_binding_
